Microsoft (R) Macro Assembler Version 14.29.30146.0	    12/24/22 17:46:22
FinalProject\main.asm					     Page 1 - 1


				;=============================================================================
				; Important!
				; please set cmd charactor size to 1:1 for best experience
				;=============================================================================  
				INCLUDE Irvine32.inc
			      C ; Include file for Irvine32.lib             (Irvine32.inc)
			      C 
			      C ;OPTION CASEMAP:NONE		; optional: make identifiers case-sensitive
			      C 
			      C INCLUDE SmallWin.inc		; MS-Windows prototypes, structures, and constants
			      C .NOLIST
			      C .LIST
			      C 
			      C INCLUDE VirtualKeys.inc
			      C ; VirtualKeys.inc
			      C .NOLIST
			      C .LIST
			      C 
			      C 
			      C .NOLIST
			      C .LIST
			      C 
				.386
 00000000			.data
				INCLUDE Core/struct.asm
 0000000C		      C Vector Struct
 00000000  00000000	      C 	x DWORD ?
 00000004  00000000	      C 	y DWORD ?
 00000008  00000000	      C 	z DWORD ?
			      C Vector EndS
			      C 
 00000018		      C Line Struct
 00000000  00000000	      C     b Vector < > ; begin point
	   00000000
	   00000000
 0000000C  00000000	      C     e Vector < > ; end point
	   00000000
	   00000000
			      C Line EndS 
			      C 
 00000018		      C Transform Struct
 00000000  00000000	      C     pos   Vector < > ; position of object
	   00000000
	   00000000
 0000000C  00000000	      C     euler Vector < > ; euler angle of object (rotation)
	   00000000
	   00000000
			      C Transform EndS
			      C 
 00000010		      C SphereData Struct
 00000000  00000000	      C     pos Vector < >
	   00000000
	   00000000
 0000000C  00000000	      C     r DWORD ?
			      C SphereData EndS
			      C 
 00000024		      C Matrix3 Struct
 00000000  00000000	      C     n00 DWORD ?      ; n00, n01, n02
 00000004  00000000	      C     n01 DWORD ?      ; n10, n11, n12
 00000008  00000000	      C     n02 DWORD ?      ; n20, n21 ,n22
 0000000C  00000000	      C     n10 DWORD ?
 00000010  00000000	      C     n11 DWORD ?
 00000014  00000000	      C     n12 DWORD ?
 00000018  00000000	      C     n20 DWORD ?
 0000001C  00000000	      C     n21 DWORD ?
 00000020  00000000	      C     n22 DWORD ?
			      C Matrix3 EndS
			      C 
				INCLUDE Core/variable.asm
 = start@0		      C main EQU start@0
			      C 
 = 00000001		      C T EQU 1
 = 00000000		      C F EQU 0
			      C 
			      C ; last 3 digit is float
			      C ;==============================================================
 = 00000C45		      C PI equ 3141       ; pi = 3.1415
 =-00000C45		      C N_PI equ -3141
 = 00000A96		      C CONST_E equ 02710        ;  e = 2.71
 = 0000DFCF		      C Rad2Deg equ 57295 ; 1 radians = 57.2957795 degrees
 = 00000011		      C Deg2Rag equ 00017 ; 1 degrees =  0.0174532 radians
			      C ;==============================================================
			      C 
			      C ; Console and layout
			      C ;=============================================================================
 00000000 00000000	      C consoleHandle DWORD ?
 00000004 0000 0000	      C cursorPos COORD < 0,0 >
 00000008 00A0 0064	      C screenSize COORD < 160,100 >			; 160*100 pixel
 0000000C 0000 0000 009F      C windowRect SMALL_RECT < 0,0,159,99 >	; display start from 0
	   0063
 00000014  00007D00 [	      C layoutAttributes WORD 32000 DUP(010h)	; things to layout, used by repaint proc (100*160*2(byte))
	    0010
	   ]
			      C 
			      C ; System Object
			      C ;=============================================================================
 0000FA14 00000000	      C camera Transform << 0,0,-25000 >,< 0,0,0 >> ; facing (0,0,1.000)
	   00000000
	   FFFF9E58
	   00000000
	   00000000
	   00000000
 0000FA2C 00000000	      C cameraFacing Vector <>
	   00000000
	   00000000
 0000FA38 00000000	      C cameraRotMat Matrix3 <>
	   00000000
	   00000000
	   00000000
	   00000000
	   00000000
	   00000000
	   00000000
	   00000000
 0000FA5C 00000000	      C neg_cameraRotMat Matrix3 <>
	   00000000
	   00000000
	   00000000
	   00000000
	   00000000
	   00000000
	   00000000
	   00000000
 0000FA80 00000000	      C cameraRotMatX Matrix3 <>
	   00000000
	   00000000
	   00000000
	   00000000
	   00000000
	   00000000
	   00000000
	   00000000
 0000FAA4 00000000	      C cameraRotMatY Matrix3 <>
	   00000000
	   00000000
	   00000000
	   00000000
	   00000000
	   00000000
	   00000000
	   00000000
 0000FAC8 00000000	      C cameraRotMatZ Matrix3 <>
	   00000000
	   00000000
	   00000000
	   00000000
	   00000000
	   00000000
	   00000000
	   00000000
 0000FAEC 000000F0	      C cameraDepth DWORD 240
 0000FAF0 000001F4	      C moveSpeed DWORD 500
 0000FAF4 0000		      C keyDownCode WORD 0 ; change when key press
			      C 
			      C ; flag and temp variable
			      C ;=============================================================================
 0000FAF6 00		      C BF BYTE 0 ; bool flag
 0000FAF7 00000000	      C i DWORD ?
 0000FAFB 00000000	      C j DWORD ?
 0000FAFF 00000000	      C n DWORD ?
 0000FB03 00000000	      C m DWORD ?
			      C 
 0000FB07 00000000		obj1 SphereData < < 0,0,0 >,0 >
	   00000000
	   00000000
	   00000000
 0000FB17 000007D0		obj2 SphereData < < 2000,0,0 >,0 > 
	   00000000
	   00000000
	   00000000
 0000FB27 00000000		obj3 SphereData < < 0,2000,0 >,0 >
	   000007D0
	   00000000
	   00000000
 0000FB37 00000000		obj4 SphereData < < 0,0,2000 >,0 >
	   00000000
	   000007D0
	   00000000
 0000FB47 000007D0		obj5 SphereData < < 2000,2000,0 >,0 >
	   000007D0
	   00000000
	   00000000
 0000FB57 00000000		obj6 SphereData < < 0,2000,2000 >,0 >
	   000007D0
	   000007D0
	   00000000
 0000FB67 000007D0		obj7 SphereData < < 2000,0,2000 >,0 >
	   00000000
	   000007D0
	   00000000
 0000FB77 000007D0		obj8 SphereData < < 2000,2000,2000 >,0 >
	   000007D0
	   000007D0
	   00000000
 0000FB87 00000000		p1 Vector < 0,50,0 >
	   00000032
	   00000000
 0000FB93 0000000A		p2 Vector < 10,0,0 >        
	   00000000
	   00000000
 0000FB9F 00000000		sc vector <> 
	   00000000
	   00000000
 00000000			.code  
				INCLUDE Core/Debug.asm
 00000000		      C DigitsNumber Proc uses ebx ecx edx, val:DWORD
 00000006  8B 45 08	      C 	mov eax, val
 00000009  B9 00000000	      C 	mov ecx,0
 0000000E  83 F8 00	      C 	cmp eax,0
 00000011  7F 0C	      C 	jg DigitsNumberLOOP
 00000013  BA 00000000	      C 	mov edx, 0
 00000018  BB FFFFFFFF	      C 	mov ebx, -1
 0000001D  F7 EB	      C 	imul ebx
 0000001F		      C 	DigitsNumberLOOP:
			      C 	.IF eax !=0
 00000023  41		      C 		inc ecx
 00000024  BA 00000000	      C 		mov edx, 0
 00000029  BB 0000000A	      C 		mov ebx, 10
 0000002E  F7 FB	      C 		idiv ebx
 00000030  EB ED	      C 		jmp DigitsNumberLOOP
			      C 	.EndIF
 00000032  8B C1	      C 	mov eax, ecx
			      C ret
 0000003B		      C DigitsNumber ENDP
			      C 
			      C logc Macro val
			      C 	push ax
			      C 	mov al, val
			      C 	call writeChar
			      C 	pop ax
			      C EndM
			      C 
			      C log Macro val
			      C 	push eax
			      C 	mov eax, val
			      C 	call writeInt
			      C 	call crlf
			      C 	pop eax
			      C ENDM
			      C 
			      C fixLog Macro val, len
			      C 	local @@end, @@loop
			      C 	push eax
			      C 	push ecx
			      C 	INVOKE DigitsNumber, val
			      C 	mov ecx, len
			      C 	sub ecx, eax
			      C 	mov eax, val
			      C 	call writeInt
			      C 	.IF eax == 0
			      C 		dec ecx
			      C 	.EndIF
			      C 	cmp ecx,0
			      C 	jle @@end
			      C 	mov al, " "
			      C 	@@loop:
			      C 		call writeChar
			      C 		loop @@loop
			      C 	@@end:
			      C 	pop ecx
			      C 	pop eax
			      C ENDM
			      C 
			      C logf Macro val
			      C 	push eax
			      C 	push edx
			      C 	dive val, 1000
			      C 	call writeInt
			      C 	logc "."
			      C 	mov eax, edx
			      C 	call writeDec
			      C 	call crlf
			      C 	pop edx
			      C 	pop eax
			      C ENDM
			      C 
			      C logCor Macro cor
			      C 	push eax
			      C 	logc "("
			      C 	mov ax, cor.x
			      C 	call writeInt
			      C 	logc ","
			      C 	logc " "
			      C 	mov ax, cor.y
			      C 	call writeInt
			      C 	logc ")"
			      C 	call crlf
			      C 	pop eax
			      C ENDM
			      C 
			      C logv Macro vector
			      C 	push eax
			      C 	logc "("
			      C 	mov eax, vector.x
			      C 	call writeInt
			      C 	logc ","
			      C 	logc " "
			      C 	mov eax, vector.y
			      C 	call writeInt
			      C 	logc ","
			      C 	logc " "
			      C 	mov eax, vector.z
			      C 	call writeInt
			      C 	logc ")"
			      C 	call crlf
			      C 	pop eax
			      C ENDM
			      C 
			      C logvPtr Macro vectorPtr
			      C 	push eax
			      C 	push esi
			      C 	mov esi, vectorPtr
			      C 	logc "("
			      C 	mov eax, [esi]
			      C 	call writeInt
			      C 	logc ","
			      C 	logc " "
			      C 	mov eax, [esi+4]
			      C 	call writeInt
			      C 	logc ","
			      C 	logc " "
			      C 	mov eax, [esi+8]
			      C 	call writeInt
			      C 	logc ")"
			      C 	call crlf
			      C 	pop esi
			      C 	pop eax
			      C ENDM
			      C 
 0000003B		      C logm3Proc Proc uses eax ebx edi, matrix:dword
			      C 	local fix:vector
 00000044  8B 7D 08	      C 	mov edi,matrix
			      C 
			      C 	Invoke DigitsNumber, [edi]
 0000004E  8B D8	      C 	mov ebx, eax
			      C 	Invoke DigitsNumber, [edi+12]
			      C 	.IF eax > ebx
 0000005C  8B D8	      C 		mov ebx, eax
			      C 	.EndIF
			      C 	Invoke DigitsNumber, [edi+24]
			      C 	.IF eax > ebx
 0000006A  8B D8	      C 		mov ebx, eax
			      C 	.EndIF
 0000006C  43		      C 	inc ebx
 0000006D  89 5D F4	      C 	mov fix.x, ebx
			      C 	
			      C 	Invoke DigitsNumber, [edi+4]
 00000078  8B D8	      C 	mov ebx, eax
			      C 	Invoke DigitsNumber, [edi+16]
			      C 	.IF eax > ebx
 00000086  8B D8	      C 		mov ebx, eax
			      C 	.EndIF
			      C 	Invoke DigitsNumber, [edi+28]
			      C 	.IF eax > ebx
 00000094  8B D8	      C 		mov ebx, eax
			      C 	.EndIF	
 00000096  43		      C 	inc ebx
 00000097  89 5D F8	      C 	mov fix.y, ebx
			      C 	
			      C 	Invoke DigitsNumber, [edi+8]
 000000A2  8B D8	      C 	mov ebx, eax
			      C 	Invoke DigitsNumber, [edi+20]
			      C 	.IF eax > ebx
 000000B0  8B D8	      C 		mov ebx, eax
			      C 	.EndIF
			      C 	Invoke DigitsNumber, [edi+32]
			      C 	.IF eax > ebx
 000000BE  8B D8	      C 		mov ebx, eax
			      C 	.EndIF
 000000C0  89 5D FC	      C 	mov fix.z, ebx
 000000C3  43		      C 	inc ebx
			      C 
			      C 	logc "|"
 000000C4  66| 50	     1C 	push ax
 000000C6  B0 7C	     1C 	mov al, "|"
 000000C8  E8 00000000 E     1C 	call writeChar
 000000CD  66| 58	     1C 	pop ax
 000000CF  8B 5D F4	      C 	mov ebx, fix.x
			      C 	fixlog [edi], ebx
 000000D2  50		     1C 	push eax
 000000D3  51		     1C 	push ecx
 000000DB  8B CB	     1C 	mov ecx, ebx
 000000DD  2B C8	     1C 	sub ecx, eax
 000000DF  8B 07	     1C 	mov eax, [edi]
 000000E1  E8 00000000 E     1C 	call writeInt
 000000EA  49		     1C 		dec ecx
 000000EB  83 F9 00	     1C 	cmp ecx,0
 000000EE  7E 09	     1C 	jle ??0000
 000000F0  B0 20	     1C 	mov al, " "
 000000F2		     1C 	??0001:
 000000F2  E8 00000000 E     1C 		call writeChar
 000000F7  E2 F9	     1C 		loop ??0001
 000000F9		     1C 	??0000:
 000000F9  59		     1C 	pop ecx
 000000FA  58		     1C 	pop eax
 000000FB  8B 5D F8	      C 	mov ebx, fix.y
			      C 	fixlog [edi+4], ebx
 000000FE  50		     1C 	push eax
 000000FF  51		     1C 	push ecx
 00000108  8B CB	     1C 	mov ecx, ebx
 0000010A  2B C8	     1C 	sub ecx, eax
 0000010C  8B 47 04	     1C 	mov eax, [edi+4]
 0000010F  E8 00000000 E     1C 	call writeInt
 00000118  49		     1C 		dec ecx
 00000119  83 F9 00	     1C 	cmp ecx,0
 0000011C  7E 09	     1C 	jle ??0002
 0000011E  B0 20	     1C 	mov al, " "
 00000120		     1C 	??0003:
 00000120  E8 00000000 E     1C 		call writeChar
 00000125  E2 F9	     1C 		loop ??0003
 00000127		     1C 	??0002:
 00000127  59		     1C 	pop ecx
 00000128  58		     1C 	pop eax
 00000129  8B 5D FC	      C 	mov ebx, fix.z
			      C 	fixlog [edi+8], ebx
 0000012C  50		     1C 	push eax
 0000012D  51		     1C 	push ecx
 00000136  8B CB	     1C 	mov ecx, ebx
 00000138  2B C8	     1C 	sub ecx, eax
 0000013A  8B 47 08	     1C 	mov eax, [edi+8]
 0000013D  E8 00000000 E     1C 	call writeInt
 00000146  49		     1C 		dec ecx
 00000147  83 F9 00	     1C 	cmp ecx,0
 0000014A  7E 09	     1C 	jle ??0004
 0000014C  B0 20	     1C 	mov al, " "
 0000014E		     1C 	??0005:
 0000014E  E8 00000000 E     1C 		call writeChar
 00000153  E2 F9	     1C 		loop ??0005
 00000155		     1C 	??0004:
 00000155  59		     1C 	pop ecx
 00000156  58		     1C 	pop eax
			      C 	logc "|"
 00000157  66| 50	     1C 	push ax
 00000159  B0 7C	     1C 	mov al, "|"
 0000015B  E8 00000000 E     1C 	call writeChar
 00000160  66| 58	     1C 	pop ax
 00000162  E8 00000000 E      C 	call crlf
			      C 
			      C 	logc "|"
 00000167  66| 50	     1C 	push ax
 00000169  B0 7C	     1C 	mov al, "|"
 0000016B  E8 00000000 E     1C 	call writeChar
 00000170  66| 58	     1C 	pop ax
 00000172  8B 5D F4	      C 	mov ebx, fix.x
			      C 	fixlog [edi+12], ebx
 00000175  50		     1C 	push eax
 00000176  51		     1C 	push ecx
 0000017F  8B CB	     1C 	mov ecx, ebx
 00000181  2B C8	     1C 	sub ecx, eax
 00000183  8B 47 0C	     1C 	mov eax, [edi+12]
 00000186  E8 00000000 E     1C 	call writeInt
 0000018F  49		     1C 		dec ecx
 00000190  83 F9 00	     1C 	cmp ecx,0
 00000193  7E 09	     1C 	jle ??0006
 00000195  B0 20	     1C 	mov al, " "
 00000197		     1C 	??0007:
 00000197  E8 00000000 E     1C 		call writeChar
 0000019C  E2 F9	     1C 		loop ??0007
 0000019E		     1C 	??0006:
 0000019E  59		     1C 	pop ecx
 0000019F  58		     1C 	pop eax
 000001A0  8B 5D F8	      C 	mov ebx, fix.y
			      C 	fixlog [edi+16], ebx
 000001A3  50		     1C 	push eax
 000001A4  51		     1C 	push ecx
 000001AD  8B CB	     1C 	mov ecx, ebx
 000001AF  2B C8	     1C 	sub ecx, eax
 000001B1  8B 47 10	     1C 	mov eax, [edi+16]
 000001B4  E8 00000000 E     1C 	call writeInt
 000001BD  49		     1C 		dec ecx
 000001BE  83 F9 00	     1C 	cmp ecx,0
 000001C1  7E 09	     1C 	jle ??0008
 000001C3  B0 20	     1C 	mov al, " "
 000001C5		     1C 	??0009:
 000001C5  E8 00000000 E     1C 		call writeChar
 000001CA  E2 F9	     1C 		loop ??0009
 000001CC		     1C 	??0008:
 000001CC  59		     1C 	pop ecx
 000001CD  58		     1C 	pop eax
 000001CE  8B 5D FC	      C 	mov ebx, fix.z
			      C 	fixlog [edi+20], ebx
 000001D1  50		     1C 	push eax
 000001D2  51		     1C 	push ecx
 000001DB  8B CB	     1C 	mov ecx, ebx
 000001DD  2B C8	     1C 	sub ecx, eax
 000001DF  8B 47 14	     1C 	mov eax, [edi+20]
 000001E2  E8 00000000 E     1C 	call writeInt
 000001EB  49		     1C 		dec ecx
 000001EC  83 F9 00	     1C 	cmp ecx,0
 000001EF  7E 09	     1C 	jle ??000A
 000001F1  B0 20	     1C 	mov al, " "
 000001F3		     1C 	??000B:
 000001F3  E8 00000000 E     1C 		call writeChar
 000001F8  E2 F9	     1C 		loop ??000B
 000001FA		     1C 	??000A:
 000001FA  59		     1C 	pop ecx
 000001FB  58		     1C 	pop eax
			      C 	logc "|"
 000001FC  66| 50	     1C 	push ax
 000001FE  B0 7C	     1C 	mov al, "|"
 00000200  E8 00000000 E     1C 	call writeChar
 00000205  66| 58	     1C 	pop ax
 00000207  E8 00000000 E      C 	call crlf
			      C 
			      C 	logc "|"
 0000020C  66| 50	     1C 	push ax
 0000020E  B0 7C	     1C 	mov al, "|"
 00000210  E8 00000000 E     1C 	call writeChar
 00000215  66| 58	     1C 	pop ax
 00000217  8B 5D F4	      C 	mov ebx, fix.x
			      C 	fixlog [edi+24], ebx
 0000021A  50		     1C 	push eax
 0000021B  51		     1C 	push ecx
 00000224  8B CB	     1C 	mov ecx, ebx
 00000226  2B C8	     1C 	sub ecx, eax
 00000228  8B 47 18	     1C 	mov eax, [edi+24]
 0000022B  E8 00000000 E     1C 	call writeInt
 00000234  49		     1C 		dec ecx
 00000235  83 F9 00	     1C 	cmp ecx,0
 00000238  7E 09	     1C 	jle ??000C
 0000023A  B0 20	     1C 	mov al, " "
 0000023C		     1C 	??000D:
 0000023C  E8 00000000 E     1C 		call writeChar
 00000241  E2 F9	     1C 		loop ??000D
 00000243		     1C 	??000C:
 00000243  59		     1C 	pop ecx
 00000244  58		     1C 	pop eax
 00000245  8B 5D F8	      C 	mov ebx, fix.y
			      C 	fixlog [edi+28], ebx
 00000248  50		     1C 	push eax
 00000249  51		     1C 	push ecx
 00000252  8B CB	     1C 	mov ecx, ebx
 00000254  2B C8	     1C 	sub ecx, eax
 00000256  8B 47 1C	     1C 	mov eax, [edi+28]
 00000259  E8 00000000 E     1C 	call writeInt
 00000262  49		     1C 		dec ecx
 00000263  83 F9 00	     1C 	cmp ecx,0
 00000266  7E 09	     1C 	jle ??000E
 00000268  B0 20	     1C 	mov al, " "
 0000026A		     1C 	??000F:
 0000026A  E8 00000000 E     1C 		call writeChar
 0000026F  E2 F9	     1C 		loop ??000F
 00000271		     1C 	??000E:
 00000271  59		     1C 	pop ecx
 00000272  58		     1C 	pop eax
 00000273  8B 5D FC	      C 	mov ebx, fix.z
			      C 	fixlog [edi+32], ebx
 00000276  50		     1C 	push eax
 00000277  51		     1C 	push ecx
 00000280  8B CB	     1C 	mov ecx, ebx
 00000282  2B C8	     1C 	sub ecx, eax
 00000284  8B 47 20	     1C 	mov eax, [edi+32]
 00000287  E8 00000000 E     1C 	call writeInt
 00000290  49		     1C 		dec ecx
 00000291  83 F9 00	     1C 	cmp ecx,0
 00000294  7E 09	     1C 	jle ??0010
 00000296  B0 20	     1C 	mov al, " "
 00000298		     1C 	??0011:
 00000298  E8 00000000 E     1C 		call writeChar
 0000029D  E2 F9	     1C 		loop ??0011
 0000029F		     1C 	??0010:
 0000029F  59		     1C 	pop ecx
 000002A0  58		     1C 	pop eax
			      C 	logc "|"
 000002A1  66| 50	     1C 	push ax
 000002A3  B0 7C	     1C 	mov al, "|"
 000002A5  E8 00000000 E     1C 	call writeChar
 000002AA  66| 58	     1C 	pop ax
 000002AC  E8 00000000 E      C 	call crlf
			      C 
			      C ret
 000002B8		      C logm3Proc EndP
			      C logm3 Macro val
			      C 	Invoke logm3Proc, val
			      C ENDM
			      C 
				INCLUDE MathMethod/bool.asm
			      C ; And
			      C ; =============================================================
 000002B8		      C and2Proc Proc, val1:BYTE, val2:BYTE
			      C 	.IF val1 == T
			      C 	.IF val2 == T
 000002C7  C6 05 0000FAF6 R   C 		mov BF, T
	   01
			      C 		ret
			      C 	.EndIF
			      C 	.EndIF
 000002D2  C6 05 0000FAF6 R   C 	mov BF, F
	   00
			      C ret
 000002DD		      C and2Proc EndP
			      C and2 MACRO val1, val2
			      C 	INVOKE and2Proc, val1, val2
			      C ENDM
 000002DD		      C and3Proc Proc, val1:BYTE, val2:BYTE, val3:BYTE
			      C 	.IF val1 == T
			      C 	.IF val2 == T
			      C 	.IF val3 == T
 000002F2  C6 05 0000FAF6 R   C 		mov BF, T
	   01
			      C 		ret
			      C 	.EndIF
			      C 	.EndIF
			      C 	.EndIF
 000002FD  C6 05 0000FAF6 R   C 	mov BF, F
	   00
			      C ret
 00000308		      C and3Proc EndP
			      C and3 MACRO val1, val2, val3
			      C 	INVOKE and3Proc, val1, val2, val3
			      C ENDM
			      C 
			      C ; Or
			      C ; =============================================================
 00000308		      C or2Proc Proc, val1:BYTE, val2:BYTE
			      C 	.IF val1 == F
			      C 	.IF val2 == F
 00000317  C6 05 0000FAF6 R   C 		mov BF, F
	   00
			      C 		ret
			      C 	.EndIF
			      C 	.EndIF
 00000322  C6 05 0000FAF6 R   C 	mov BF, T
	   01
			      C ret
 0000032D		      C or2Proc EndP
			      C or2 MACRO val1, val2
			      C 	INVOKE or2Proc, val1, val2
			      C ENDM
 0000032D		      C or3Proc Proc, val1:BYTE, val2:BYTE, val3:BYTE
			      C 	.IF val1 == F
			      C 	.IF val2 == F
			      C 	.IF val3 == F
 00000342  C6 05 0000FAF6 R   C 		mov BF, F
	   00
			      C 		ret
			      C 	.EndIF
			      C 	.EndIF
			      C 	.EndIF
 0000034D  C6 05 0000FAF6 R   C 	mov BF, T
	   01
			      C ret
 00000358		      C or3Proc EndP
			      C or3 MACRO val1, val2, val3
			      C 	INVOKE or3Proc, val1, val2, val3
			      C ENDM
			      C 
			      C ; Jump
			      C ; =============================================================
			      C JT Macro target
			      C 	cmp BF, T
			      C 	je target
			      C EndM
			      C 
			      C JF Macro target
			      C 	cmp BF, F
			      C 	je target
			      C EndM
			      C 
			      C 
 00000358		      C isEProc Proc val1:dword, val2:dword
 0000035B  50		      C push eax
 0000035C  8B 45 08	      C 	mov eax, val1
 0000035F  3B 45 0C	      C 	cmp eax, val2
 00000362  75 09	      C 	jne isEfalsePart
 00000364  C6 05 0000FAF6 R   C 		mov BF, T
	   01
 0000036B  EB 07	      C 	jmp isEendProc
 0000036D		      C 	isEfalsePart:
 0000036D  C6 05 0000FAF6 R   C 		mov BF, F
	   00
 00000374		      C 	isEendProc:
 00000374  58		      C pop eax
			      C ret
 00000379		      C isEProc EndP
			      C isE MACRO v1, v2
			      C 	INVOKE isEProc, v1, v2
			      C EndM
			      C 
 00000379		      C isAProc Proc val1:dword, val2:dword
 0000037C  50		      C push eax
 0000037D  8B 45 08	      C 	mov eax, val1
 00000380  3B 45 0C	      C 	cmp eax, val2
 00000383  7E 09	      C 	jle isAfalsePart
 00000385  C6 05 0000FAF6 R   C 		mov BF, T
	   01
 0000038C  EB 07	      C 	jmp isAendProc
 0000038E		      C 	isAfalsePart:
 0000038E  C6 05 0000FAF6 R   C 		mov BF, F
	   00
 00000395		      C 	isAendProc:
 00000395  58		      C pop eax
			      C ret
 0000039A		      C isAProc EndP
			      C isA MACRO v1, v2
			      C 	INVOKE isAProc, v1, v2
			      C EndM
			      C 
 0000039A		      C isAEProc Proc val1:dword, val2:dword
 0000039D  50		      C push eax
 0000039E  8B 45 08	      C 	mov eax, val1
 000003A1  3B 45 0C	      C 	cmp eax, val2
 000003A4  7C 09	      C 	jl isAEfalsePart
 000003A6  C6 05 0000FAF6 R   C 		mov BF, T
	   01
 000003AD  EB 07	      C 	jmp isAEendProc
 000003AF		      C 	isAEfalsePart:
 000003AF  C6 05 0000FAF6 R   C 		mov BF, F
	   00
 000003B6		      C 	isAEendProc:
 000003B6  58		      C pop eax
			      C ret
 000003BB		      C isAEProc EndP
			      C isAE MACRO v1, v2
			      C 	INVOKE isAEProc, v1, v2
			      C EndM
			      C 
 000003BB		      C isBProc Proc val1:dword, val2:dword
 000003BE  50		      C push eax
 000003BF  8B 45 08	      C 	mov eax, val1
 000003C2  3B 45 0C	      C 	cmp eax, val2
 000003C5  7D 09	      C 	jge isBfalsePart
 000003C7  C6 05 0000FAF6 R   C 		mov BF, T
	   01
 000003CE  EB 07	      C 	jmp isBendProc
 000003D0		      C 	isBfalsePart:
 000003D0  C6 05 0000FAF6 R   C 		mov BF, F
	   00
 000003D7		      C 	isBendProc:
 000003D7  58		      C pop eax
			      C ret
 000003DC		      C isBProc EndP
			      C isB MACRO v1, v2
			      C 	INVOKE isBProc, v1, v2
			      C EndM
			      C 
 000003DC		      C isBEProc Proc val1:dword, val2:dword
 000003DF  50		      C push eax
 000003E0  8B 45 08	      C 	mov eax, val1
 000003E3  3B 45 0C	      C 	cmp eax, val2
 000003E6  7F 09	      C 	jg isBEfalsePart
 000003E8  C6 05 0000FAF6 R   C 		mov BF, T
	   01
 000003EF  EB 07	      C 	jmp isBEendProc
 000003F1		      C 	isBEfalsePart:
 000003F1  C6 05 0000FAF6 R   C 		mov BF, F
	   00
 000003F8		      C 	isBEendProc:
 000003F8  58		      C pop eax
			      C ret
 000003FD		      C isBEProc EndP
			      C isBE MACRO v1, v2
			      C 	INVOKE isBEProc, v1, v2
			      C EndM
			      C 
				INCLUDE MathMethod/MathCore.asm
			      C IsNeg MACRO val
			      C 	isB val, 0
			      C ENDM
			      C 
			      C ; Abs
			      C ;=============================================================================
			      C Abs MACRO val
			      C 	isNeg val
			      C 	.IF BF == T
			      C 		push ebx
			      C 		mov eax, val
			      C 		mov ebx, -1
			      C 		imul ebx
			      C 		pop ebx
			      C 	.EndIF
			      C ENDM
			      C 
			      C ; Max Min, the result will in eax
			      C ;=============================================================================
 000003FD		      C Max2Proc Proc, val1:DWORD, val2:DWORD
 00000400  8B 45 08	      C 	mov eax, val1
 00000403  3B 45 0C	      C 	cmp eax, val2
 00000406  7F 03	      C 	jg Max2ProcCheck
 00000408  8B 45 0C	      C 		mov eax, val2
 0000040B		      C 	Max2ProcCheck:
			      C ret
 0000040F		      C Max2Proc EndP
			      C Max2 Macro val1, val2
			      C 	INVOKE Max2Proc, val1,val2
			      C EndM
			      C 
 0000040F		      C Max3Proc Proc, val1:DWORD, val2:DWORD, val3:DWORD
 00000412  8B 45 08	      C 	mov eax, val1
 00000415  3B 45 0C	      C 	cmp eax, val2
 00000418  7F 03	      C 	jg Max3ProcCheck1
 0000041A  8B 45 0C	      C 		mov eax, val2
 0000041D		      C 	Max3ProcCheck1:
 0000041D  3B 45 10	      C 	cmp eax, val3
 00000420  7F 03	      C 	jg Max3ProcCheck2
 00000422  8B 45 10	      C 		mov eax, val3
 00000425		      C 	Max3ProcCheck2:
			      C ret
 00000429		      C Max3Proc EndP
			      C Max3 Macro val1, val2, val3
			      C 	INVOKE Max3Proc, val1,val2,val3
			      C EndM
			      C 
 00000429		      C Min2Proc Proc, val1:DWORD, val2:DWORD
 0000042C  8B 45 08	      C 	mov eax, val1
 0000042F  3B 45 0C	      C 	cmp eax, val2
 00000432  7C 03	      C 	jl Min2ProcCheck
 00000434  8B 45 0C	      C 		mov eax, val2
 00000437		      C 	Min2ProcCheck:
			      C ret
 0000043B		      C Min2Proc EndP
			      C Min2 Macro val1, val2
			      C 	INVOKE Min2Proc, val1,val2
			      C EndM
			      C 
 0000043B		      C Min3Proc Proc, val1:DWORD, val2:DWORD, val3:DWORD
 0000043E  8B 45 08	      C 	mov eax, val1
 00000441  3B 45 0C	      C 	cmp eax, val2
 00000444  7C 03	      C 	jl Min3ProcCheck1
 00000446  8B 45 0C	      C 		mov eax, val2
 00000449		      C 	Min3ProcCheck1:
 00000449  3B 45 10	      C 	cmp eax, val3
 0000044C  7C 03	      C 	jl Min3ProcCheck2
 0000044E  8B 45 10	      C 		mov eax, val3
 00000451		      C 	Min3ProcCheck2:
			      C ret
 00000455		      C Min3Proc EndP
			      C Min3 Macro val1, val2, val3
			      C 	INVOKE Min3Proc, val1,val2,val3
			      C EndM
			      C 
			      C ; Clamp
			      C ;=============================================================================
 00000455		      C ClampProc Proc  val:DWORD, min:DWORD, max:DWORD
			      C 	isA val, max
			      C 	.IF BF == T
 0000046C  8B 45 10	      C 		mov eax, max
			      C 		ret
			      C 	.EndIF
			      C 	isB val, min
			      C 	.IF BF == T
 00000487  8B 45 0C	      C 		mov eax, min
			      C 		ret
			      C 	.EndIF
			      C 
 0000048E  8B 45 08	      C 	mov eax, val
			      C ret
 00000495		      C ClampProc EndP
			      C Clamp MACRO val, min, max
			      C 	INVOKE ClampProc, val, min, max
			      C ENDM
			      C 
			      C ; Mult and Dive (double word)
			      C ;=============================================================================
 00000495		      C MultProc Proc uses ebx edx, val1:dword, val2:dword
 0000049A  BA 00000000	      C 	mov edx, 0
 0000049F  8B 45 08	      C 	mov eax, val1
 000004A2  8B 5D 0C	      C 	mov ebx, val2
 000004A5  F7 EB	      C 	imul ebx
			      C 
 000004A7  83 FA 00	      C 	cmp edx, 0
 000004AA  74 22	      C 	je MultProcNotOverflow
 000004AC  83 FA FF	      C 	cmp edx, 0FFFFFFFFh
 000004AF  74 1D	      C 	je MultProcNotOverflow
 000004B1		      C 	MultProcOverflow:
			      C 	IsNeg edx
			      C 	jt MultProcNegOverflow
 000004B9  80 3D 0000FAF6 R  1C 	cmp BF, T
	   01
 000004C0  74 07	     1C 	je MultProcNegOverflow
 000004C2  B8 7FFFFFFF	      C 	mov eax, 7FFFFFFFh
 000004C7  EB 05	      C 	jmp MultProcNotOverflow
 000004C9		      C 	MultProcNegOverflow:
 000004C9  B8 80000000	      C 	mov eax, 80000000h
 000004CE		      C 	MultProcNotOverflow:
			      C ret
 000004D4		      C MultProc ENDP
			      C Mult Macro val1, val2
			      C 	INVOKE MultProc, val1, val2
			      C EndM
			      C ; last 3 digit is float
			      C MultF Macro val1, val2
			      C 	INVOKE MultProc, val1, val2
			      C 	dive eax, 1000
			      C EndM
			      C 
 000004D4		      C DiveProc Proc uses ebx, val1:dword, val2:dword
 000004D8  BA 00000000	      C 	mov edx, 0
 000004DD  8B 45 08	      C 	mov eax, val1
 000004E0  8B 5D 0C	      C 	mov ebx, val2
			      C 
 000004E3  83 F8 00	      C 	cmp eax,0
 000004E6  74 36	      C 	je DiveProcEnd
 000004E8  83 FB 00	      C 	cmp ebx,0
 000004EB  74 31	      C 	je DiveProcEnd
			      C 	
			      C 	isNeg eax
			      C 	jf  DiveProcNotNeg
 000004F5  80 3D 0000FAF6 R  1C 	cmp BF, F
	   00
 000004FC  74 1E	     1C 	je DiveProcNotNeg
 000004FE  50		      C 	push eax
 000004FF  BA FFFFFFFF	      C 	mov edx, -1
 00000504  8B C3	      C 	mov eax, ebx
			      C 	mult eax,edx
 0000050D  8B D8	      C 	mov ebx, eax
 0000050F  58		      C 	pop eax
			      C 	mult eax, edx
 00000517  BA 00000000	      C 	mov edx, 0
			      C 
 0000051C		      C 	DiveProcNotNeg:
 0000051C  F7 FB	      C 	idiv ebx
 0000051E		      C 	DiveProcEnd:
			      C ret
 00000523		      C DiveProc ENDP
			      C Dive Macro val1, val2
			      C 	INVOKE DiveProc, val1, val2
			      C EndM
			      C 
			      C ; Sqrt
			      C ;=============================================================================
 00000523		      C SqrtProc Proc uses ebx ecx edx, val:dword
 00000529  C7 05 0000FAF7 R   C 	mov i, 1
	   00000001
 00000533  B9 00000000	      C 	mov ecx,0
 00000538  8B 55 08	      C 	mov edx, val
 0000053B		      C 	SqrtProcLoop:
			      C 		mult i, i	; now -> ax
 0000054C  8B DA	      C 		mov ebx, edx ; target
 0000054E  2B D8	      C 		sub ebx, eax	; target - now
			      C 		isAE eax, edx
			      C 		jt SqrtProcEndLoop
 00000557  80 3D 0000FAF6 R  1C 	cmp BF, T
	   01
 0000055E  74 0A	     1C 	je SqrtProcEndLoop
 00000560  FF 05 0000FAF7 R   C 		inc i
 00000566  8B CB	      C 		mov ecx, ebx
 00000568  EB D1	      C 		jmp SqrtProcLoop
 0000056A		      C 	SqrtProcEndLoop:
 0000056A  F7 DB	      C 	neg ebx
			      C 	isB ebx, ecx
 00000573  A1 0000FAF7 R      C 	mov eax, i
			      C 	jt SqrtProcEnd
 00000578  80 3D 0000FAF6 R  1C 	cmp BF, T
	   01
 0000057F  74 01	     1C 	je SqrtProcEnd
 00000581  48		      C 	dec eax
 00000582		      C 	SqrtProcEnd:
			      C ret
 00000589		      C SqrtProc ENDP
			      C Sqrt Macro val
			      C 	INVOKE SqrtProc, val
			      C EndM
			      C 
 00000589		      C SetSphereProc Proc uses eax esi, spherePtr:DWORD, posX:DWORD, posY:DWORD, posZ:DWORD, r:DWORD
 0000058E  8B 75 08	      C 	mov esi, spherePtr
 00000591  8B 45 0C	      C 	mov eax, posX
 00000594  89 06	      C 	mov [esi] ,eax
 00000596  8B 45 10	      C 	mov eax, posY
 00000599  89 46 04	      C 	mov [esi+4] ,eax
 0000059C  8B 45 14	      C 	mov eax, posZ
 0000059F  89 46 08	      C 	mov [esi+8] ,eax
 000005A2  8B 45 18	      C 	mov eax, r
 000005A5  89 46 0C	      C 	mov [esi+12] ,eax
			      C ret
 000005AE		      C SetSphereProc ENDP
			      C SetSphere MACRO spherePtr, posX, posY, posZ, r
			      C 	INVOKE SetSphereProc, spherePtr, posX, posY, posZ, r
			      C ENDM
			      C 
				INCLUDE MathMethod/SinCos.asm
			      C ; last 3 digit is float
			      C 
			      C ; degree normalize
 000005AE		      C degNorProc Proc, deg:Dword
 000005B1  8B 45 08	      C 	mov eax, deg
 000005B4		      C 	degNorCheckA:
			      C 	isa eax, 360
			      C 	jf degNorCheckB
 000005BF  80 3D 0000FAF6 R  1C 	cmp BF, F
	   00
 000005C6  74 07	     1C 	je degNorCheckB
 000005C8  2D 00000168	      C 	sub eax, 360
 000005CD  EB E5	      C 	jmp degNorCheckA
			      C 
 000005CF		      C 	degNorCheckB:
			      C 	isb eax, 0
			      C 	jf degNorEnd
 000005D7  80 3D 0000FAF6 R  1C 	cmp BF, F
	   00
 000005DE  74 07	     1C 	je degNorEnd
 000005E0  05 00000168	      C 	add eax, 360
 000005E5  EB E8	      C 	jmp degNorCheckB
			      C 
 000005E7		      C 	degNorEnd:
			      C ret
 000005EB		      C degNorProc EndP
			      C degNor MACRO val
			      C 	INVOKE degNorProc, val
			      C ENDM
			      C 
			      C ; 近似值 sin
 000005EB		      C sinProc Proc uses ebx ecx edx, deg:Dword
			      C 	degNor deg
			      C 	isA eax, 180
			      C 	.IF BF == T
 0000060D  2D 000000B4	      C 		sub eax, 180
 00000612  B9 FFFFFFFF	      C 		mov ecx, -1
			      C 	.ElseIF
 00000619  B9 00000001	      C 		mov ecx, 1
			      C 	.EndIF
			      C 
			      C 	isA eax, 90
			      C 	.IF BF == T
 0000062F  2D 000000B4	      C 		sub eax, 180
			      C 		Abs eax
 00000645  53		     1C 		push ebx
 00000646  8B C0	     1C 		mov eax, eax
 00000648  BB FFFFFFFF	     1C 		mov ebx, -1
 0000064D  F7 EB	     1C 		imul ebx
 0000064F  5B		     1C 		pop ebx
			      C 	.EndIF
			      C 	isBE eax, 45
			      C 	.IF BF == T
 00000661  E8 00000048	      C 		call sinProc45
			      C 	.ELSE
 00000668  83 E8 5A	      C 		sub eax, 90
			      C 		Abs eax
 0000067C  53		     1C 		push ebx
 0000067D  8B C0	     1C 		mov eax, eax
 0000067F  BB FFFFFFFF	     1C 		mov ebx, -1
 00000684  F7 EB	     1C 		imul ebx
 00000686  5B		     1C 		pop ebx
 00000687  E8 00000022	      C 		call sinProc45
			      C 		mult eax,eax
 00000693  BB 000F4240	      C 		mov ebx, 1000000 ; 1.000000
 00000698  2B D8	      C 		sub ebx, eax
			      C 		sqrt ebx
			      C 	.EndIF
			      C 	mult eax, ecx
			      C ret
 000006AE		      C sinProc EndP
			      C sin MACRO val
			      C 	Invoke sinProc,val
			      C ENDM
			      C 
			      C ; do sin between 0~45 deg
			      C ; use eax as input and output
 000006AE		      C sinProc45 Proc
			      C 	isBE eax, 15
			      C 	.IF BF == T
			      C 		mult eax, 1000
			      C 		mult eax, PI
			      C 		dive eax, 180000 ; 180 * 1000
			      C 	.ELSE
			      C 		isBE eax, 30

			      C 		.IF BF == T
 000006F3  83 E8 0F	      C 			sub eax, 15
			      C 			mult eax, 016 ; sin(15-30) 每度近似值為 0.016
 000006FE  05 00000103	      C 			add eax, 259  ; sin(15) ~= 0.259
			      C 		.Else
 00000705  83 E8 1E	      C 			sub eax, 30
			      C 			mult eax, 014 ; sin(30-45) 每度近似值為 0.016
 00000710  05 000001F4	      C 			add eax, 500  ; sin(30) ~= 0.5
			      C 		.EndIF
			      C 	.EndIF
 00000715  C3		      C ret
 00000716		      C sinProc45 EndP
			      C 
			      C ; con(θ) = sin(90- θ)
 00000716		      C cosProc Proc deg:dword
 00000719  B8 0000005A	      C 	mov eax,90
 0000071E  2B 45 08	      C 	sub eax, deg
			      C 	sin eax 
			      C ret
 0000072B		      C cosProc EndP
			      C cos MACRO deg
			      C 	INVOKE cosProc, deg
			      C ENDM
			      C 
				INCLUDE MathMethod/Vector.asm
			      C setVector MACRO vec, val1, val2, val3
			      C push eax
			      C 	mov eax,val1
			      C 	mov vec.x, eax
			      C 	mov eax,val2
			      C 	mov vec.y, eax
			      C 	mov eax,val3
			      C 	mov vec.z, eax
			      C pop eax
			      C ENDM
			      C 
 0000072B		      C addVectorProc Proc uses eax esi edi, v1:DWORD, v2:DWORD 
 00000731  8B 75 0C	      C 	mov esi, v2
 00000734  8B 7D 08	      C 	mov edi, v1
 00000737  8B 06	      C 	mov eax, [esi]
 00000739  01 07	      C 	add [edi], eax
 0000073B  8B 46 04	      C 	mov eax, [esi+4]
 0000073E  01 47 04	      C 	add [edi+4], eax
 00000741  8B 46 08	      C 	mov eax, [esi+8]
 00000744  01 47 08	      C 	add [edi+8], eax
			      C ret
 0000074E		      C addVectorProc ENDP
			      C addVector MACRO v1, v2
			      C 	INVOKE addVectorProc, v1 ,v2
			      C ENDM
			      C 
 0000074E		      C mulVectorProc Proc uses eax edi, v1:DWORD, k:DWORD 
 00000753  8B 7D 08	      C 	mov edi, v1
			      C 	mult [edi], k
 00000760  89 07	      C 	mov [edi], eax
			      C 	mult [edi+4], k
 0000076D  89 47 04	      C 	mov [edi+4], eax
			      C 	mult [edi+8], k
 0000077B  89 47 08	      C 	mov [edi+8], eax
			      C ret
 00000784		      C mulVectorProc ENDP
			      C mulVector MACRO v1, k
			      C 	INVOKE mulVectorProc, v1 ,k
			      C ENDM
			      C 
 00000784		      C divVectorProc Proc uses eax edi, v1:DWORD, k:DWORD 
 00000789  8B 7D 08	      C 	mov edi, v1
			      C 	dive [edi], k
 00000796  89 07	      C 	mov [edi], eax
			      C 	dive [edi+4], k
 000007A3  89 47 04	      C 	mov [edi+4], eax
			      C 	dive [edi+8], k
 000007B1  89 47 08	      C 	mov [edi+8], eax
			      C ret
 000007BA		      C divVectorProc ENDP
			      C divVector MACRO v1, k
			      C 	INVOKE divVectorProc, v1 ,k
			      C ENDM
			      C 
 000007BA		      C subVectorProc Proc uses eax esi edi, v1:DWORD, v2:DWORD 
 000007C0  8B 75 0C	      C 	mov esi, v2
 000007C3  8B 7D 08	      C 	mov edi, v1
 000007C6  8B 06	      C 	mov eax, [esi]
 000007C8  29 07	      C 	sub [edi], eax
 000007CA  8B 46 04	      C 	mov eax, [esi+4]
 000007CD  29 47 04	      C 	sub [edi+4], eax
 000007D0  8B 46 08	      C 	mov eax, [esi+8]
 000007D3  29 47 08	      C 	sub [edi+8], eax
			      C ret
 000007DD		      C subVectorProc ENDP
			      C subVector MACRO v1, v2
			      C 	INVOKE subVectorProc, v1 ,v2
			      C ENDM
			      C 
 000007DD		      C copyVectorProc Proc uses eax esi edi, v1:DWORD, v2:DWORD 
 000007E3  8B 75 0C	      C 	mov esi, v2
 000007E6  8B 7D 08	      C 	mov edi, v1
 000007E9  8B 06	      C 	mov eax, [esi]
 000007EB  89 07	      C 	mov [edi], eax
 000007ED  8B 46 04	      C 	mov eax, [esi+4]
 000007F0  89 47 04	      C 	mov [edi+4], eax
 000007F3  8B 46 08	      C 	mov eax, [esi+8]
 000007F6  89 47 08	      C 	mov [edi+8], eax
			      C ret
 00000800		      C copyVectorProc ENDP
			      C copyVector MACRO v1, v2
			      C 	INVOKE copyVectorProc, v1 ,v2
			      C ENDM
			      C 
 00000800		      C VectorLenProc Proc uses esi, vec:DWORD
 00000804  8B 75 08	      C 	mov esi, vec
			      C 	mult [esi], [esi]
 00000810  8B D8	      C 	mov ebx, eax
			      C 	mult [esi+4], [esi+4]
 0000081D  03 D8	      C 	add ebx, eax
			      C 	mult [esi+8], [esi+8]
 0000082A  03 C3	      C 	add eax, ebx
			      C 	sqrt eax
			      C ret
 00000837		      C VectorLenProc ENDP
			      C VectorLen MACRO vec
			      C 	INVOKE VectorLenProc, vec
			      C 	ENDM
			      C 
				INCLUDE MathMethod/Matrix.asm
 00000837		      C Matrix3Mult Proc uses eax ebx esi edi, result:DWORD ,m1:DWORD, m2:DWORD
 0000083E  8B 75 0C	      C 	mov esi, m1
 00000841  8B 7D 10	      C 	mov edi, m2
			      C 
			      C 	; 00 ~ 02
 00000844  8B 06	      C 	mov eax, [esi] 
			      C 	mult eax, [edi] ; s00 * d00
 0000084E  8B D8	      C 	mov ebx, eax
 00000850  8B 46 04	      C 	mov eax, [esi+4] 
			      C 	mult eax, [edi+12] ; s01 * d10
 0000085C  03 D8	      C 	add ebx, eax
 0000085E  8B 46 08	      C 	mov eax, [esi+8] 
			      C 	mult eax, [edi+24] ; s02 * d20
 0000086A  03 D8	      C 	add ebx, eax
			      C 	
 0000086C  8B 75 08	      C 	mov esi, result
 0000086F  89 1E	      C 	mov [esi], ebx
 00000871  8B 75 0C	      C 	mov esi, m1
			      C 
 00000874  8B 06	      C 	mov eax, [esi] 
			      C 	mult eax, [edi+4] ; s00 * d01
 0000087F  8B D8	      C 	mov ebx, eax
 00000881  8B 46 04	      C 	mov eax, [esi+4] 
			      C 	mult eax, [edi+16] ; s01 * d11
 0000088D  03 D8	      C 	add ebx, eax
 0000088F  8B 46 08	      C 	mov eax, [esi+8] 
			      C 	mult eax, [edi+28] ; s02 * d21
 0000089B  03 D8	      C 	add ebx, eax
			      C 	
 0000089D  8B 75 08	      C 	mov esi, result
 000008A0  89 5E 04	      C 	mov [esi+4], ebx
 000008A3  8B 75 0C	      C 	mov esi, m1
			      C 
 000008A6  8B 06	      C 	mov eax, [esi] 
			      C 	mult eax, [edi+8] ; s00 * d01
 000008B1  8B D8	      C 	mov ebx, eax
 000008B3  8B 46 04	      C 	mov eax, [esi+4] 
			      C 	mult eax, [edi+20] ; s01 * d11
 000008BF  03 D8	      C 	add ebx, eax
 000008C1  8B 46 08	      C 	mov eax, [esi+8] 
			      C 	mult eax, [edi+32] ; s02 * d21
 000008CD  03 D8	      C 	add ebx, eax
			      C 	
 000008CF  8B 75 08	      C 	mov esi, result
 000008D2  89 5E 08	      C 	mov [esi+8], ebx
 000008D5  8B 75 0C	      C 	mov esi, m1
			      C 
			      C 	
			      C 	; 10 ~ 12
 000008D8  8B 46 0C	      C 	mov eax, [esi+12] 
			      C 	mult eax, [edi] ; s00 * d00
 000008E3  8B D8	      C 	mov ebx, eax
 000008E5  8B 46 10	      C 	mov eax, [esi+16] 
			      C 	mult eax, [edi+12] ; s01 * d10
 000008F1  03 D8	      C 	add ebx, eax
 000008F3  8B 46 14	      C 	mov eax, [esi+20] 
			      C 	mult eax, [edi+24] ; s02 * d20
 000008FF  03 D8	      C 	add ebx, eax
			      C 	
 00000901  8B 75 08	      C 	mov esi, result
 00000904  89 5E 0C	      C 	mov [esi+12], ebx
 00000907  8B 75 0C	      C 	mov esi, m1
			      C 
 0000090A  8B 46 0C	      C 	mov eax, [esi+12] 
			      C 	mult eax, [edi+4] ; s00 * d01
 00000916  8B D8	      C 	mov ebx, eax
 00000918  8B 46 10	      C 	mov eax, [esi+16] 
			      C 	mult eax, [edi+16] ; s01 * d11
 00000924  03 D8	      C 	add ebx, eax
 00000926  8B 46 14	      C 	mov eax, [esi+20] 
			      C 	mult eax, [edi+28] ; s02 * d21
 00000932  03 D8	      C 	add ebx, eax
			      C 	
 00000934  8B 75 08	      C 	mov esi, result
 00000937  89 5E 10	      C 	mov [esi+16], ebx
 0000093A  8B 75 0C	      C 	mov esi, m1
			      C 
 0000093D  8B 46 0C	      C 	mov eax, [esi+12] 
			      C 	mult eax, [edi+8] ; s00 * d01
 00000949  8B D8	      C 	mov ebx, eax
 0000094B  8B 46 10	      C 	mov eax, [esi+16] 
			      C 	mult eax, [edi+20] ; s01 * d11
 00000957  03 D8	      C 	add ebx, eax
 00000959  8B 46 14	      C 	mov eax, [esi+20] 
			      C 	mult eax, [edi+32] ; s02 * d21
 00000965  03 D8	      C 	add ebx, eax
			      C 	
 00000967  8B 75 08	      C 	mov esi, result
 0000096A  89 5E 14	      C 	mov [esi+20], ebx
 0000096D  8B 75 0C	      C 	mov esi, m1
			      C 	
			      C 
			      C 	; 20 ~ 22
 00000970  8B 46 18	      C 	mov eax, [esi+24] 
			      C 	mult eax, [edi] ; s00 * d00
 0000097B  8B D8	      C 	mov ebx, eax
 0000097D  8B 46 1C	      C 	mov eax, [esi+28] 
			      C 	mult eax, [edi+12] ; s01 * d10
 00000989  03 D8	      C 	add ebx, eax
 0000098B  8B 46 20	      C 	mov eax, [esi+32] 
			      C 	mult eax, [edi+24] ; s02 * d20
 00000997  03 D8	      C 	add ebx, eax
			      C 	
 00000999  8B 75 08	      C 	mov esi, result
 0000099C  89 5E 18	      C 	mov [esi+24], ebx
 0000099F  8B 75 0C	      C 	mov esi, m1
			      C 
 000009A2  8B 46 18	      C 	mov eax, [esi+24] 
			      C 	mult eax, [edi+4] ; s00 * d01
 000009AE  8B D8	      C 	mov ebx, eax
 000009B0  8B 46 1C	      C 	mov eax, [esi+28] 
			      C 	mult eax, [edi+16] ; s01 * d11
 000009BC  03 D8	      C 	add ebx, eax
 000009BE  8B 46 20	      C 	mov eax, [esi+32] 
			      C 	mult eax, [edi+28] ; s02 * d21
 000009CA  03 D8	      C 	add ebx, eax
			      C 	
 000009CC  8B 75 08	      C 	mov esi, result
 000009CF  89 5E 1C	      C 	mov [esi+28], ebx
 000009D2  8B 75 0C	      C 	mov esi, m1
			      C 
 000009D5  8B 46 18	      C 	mov eax, [esi+24] 
			      C 	mult eax, [edi+8] ; s00 * d01
 000009E1  8B D8	      C 	mov ebx, eax
 000009E3  8B 46 1C	      C 	mov eax, [esi+28] 
			      C 	mult eax, [edi+20] ; s01 * d11
 000009EF  03 D8	      C 	add ebx, eax
 000009F1  8B 46 20	      C 	mov eax, [esi+32] 
			      C 	mult eax, [edi+32] ; s02 * d21
 000009FD  03 D8	      C 	add ebx, eax
 000009FF  8B 75 08	      C 	mov esi, result
 00000A02  89 5E 20	      C 	mov [esi+32], ebx
			      C 
			      C ret
 00000A0D		      C Matrix3Mult EndP
			      C 
 00000A0D		      C Matrix3MultKProc Proc uses eax ecx edi, mat:DWORD, K:DWORD
 00000A13  8B 7D 08	      C 	mov edi, mat
 00000A16  B9 00000009	      C 	mov ecx, 9
 00000A1B		      C 	Matrix3MultKLoop:
			      C 		mult [edi], K
 00000A25  89 07	      C 		mov [edi], eax
 00000A27  83 C7 04	      C 		add edi, 4
 00000A2A  E2 EF	      C 	loop Matrix3MultKLoop
			      C ret
 00000A33		      C Matrix3MultKProc EndP
			      C Matrix3MultK Macro mat, k
			      C 	INVOKE Matrix3MultKProc, mat, k
			      C ENDM
			      C 
 00000A33		      C Matrix3DiveKProc Proc uses eax ecx edi, mat:DWORD, K:DWORD
 00000A39  8B 7D 08	      C 	mov edi, mat
 00000A3C  B9 00000009	      C 	mov ecx, 9
 00000A41		      C 	Matrix3DiveKLoop:
			      C 		dive [edi], K
 00000A4B  89 07	      C 		mov [edi], eax
 00000A4D  83 C7 04	      C 		add edi, 4
 00000A50  E2 EF	      C 	loop Matrix3DiveKLoop
			      C ret
 00000A59		      C Matrix3DiveKProc EndP
			      C Matrix3DiveK Macro mat, k
			      C 	INVOKE Matrix3DiveKProc, mat, k
			      C ENDM
			      C 
				INCLUDE MathMethod/RotationMatrix.asm
			      C ; here we use zYX rotation
 00000A59		      C EulerToRotMatrixProc Proc matrix:DWORD, euler:DWORD
			      C 	local xm:matrix3, ym:matrix3, zm:matrix3 ; rotation matrix
			      C 	local zxm:matrix3
 00000A62  8B 7D 0C	      C 	mov edi, euler
			      C 	; here is float 1.000
			      C 	; x axis
			      C 	;	1		0		0
			      C 	;	0		cos		sin
			      C 	;	0	   -sin	    cos
 00000A65  C7 45 DC	      C 	mov xm.n00, 1000
	   000003E8
 00000A6C  C7 45 E0	      C 	mov xm.n01, 0
	   00000000
 00000A73  C7 45 E4	      C 	mov xm.n02, 0
	   00000000
 00000A7A  C7 45 E8	      C 	mov xm.n10, 0
	   00000000
 00000A81  C7 45 F4	      C 	mov xm.n20, 0
	   00000000
			      C 	cos [edi]
 00000A8F  89 45 EC	      C 	mov xm.n11, eax
 00000A92  89 45 FC	      C 	mov xm.n22, eax
			      C 	sin [edi]
 00000A9C  89 45 F8	      C 	mov xm.n21, eax
 00000A9F  F7 D8	      C 	neg eax
 00000AA1  89 45 F0	      C 	mov xm.n12, eax
			      C 	
			      C 	; y axis
			      C 	;	cos		0		sin
			      C 	;	0		1		0
			      C 	;  -sin		0		cos
 00000AA4  C7 45 BC	      C 	mov ym.n01, 0
	   00000000
 00000AAB  C7 45 C4	      C 	mov ym.n10, 0
	   00000000
 00000AB2  C7 45 C8	      C 	mov ym.n11, 1000
	   000003E8
 00000AB9  C7 45 CC	      C 	mov ym.n12, 0
	   00000000
 00000AC0  C7 45 D4	      C 	mov ym.n21, 0
	   00000000
			      C 	cos [edi+4]
 00000ACF  89 45 B8	      C 	mov ym.n00, eax
 00000AD2  89 45 D8	      C 	mov ym.n22, eax
			      C 	sin [edi+4]
 00000ADD  89 45 C0	      C 	mov ym.n02, eax
 00000AE0  F7 D8	      C 	neg eax
 00000AE2  89 45 D0	      C 	mov ym.n20, eax
			      C 
			      C 	; z axis
			      C 	;	cos	   -sin		0
			      C 	;	sin		cos		0
			      C 	;	0		0		1
 00000AE5  C7 45 9C	      C 	mov zm.n02, 0
	   00000000
 00000AEC  C7 45 A8	      C 	mov zm.n12, 0
	   00000000
 00000AF3  C7 45 AC	      C 	mov zm.n20, 0
	   00000000
 00000AFA  C7 45 B0	      C 	mov zm.n21, 0
	   00000000
 00000B01  C7 45 B4	      C 	mov zm.n22, 1000
	   000003E8
			      C 	cos [edi+8]
 00000B10  89 45 94	      C 	mov zm.n00, eax
 00000B13  89 45 A4	      C 	mov zm.n11, eax
			      C 	sin [edi+8]
 00000B1E  89 45 98	      C 	mov zm.n01, eax
 00000B21  F7 D8	      C 	neg eax
 00000B23  89 45 A0	      C 	mov zm.n10, eax
			      C 	; 專案中 EulerAngle 的表達式為 zYX
			      C 	; 此時要倒推坐標系則反過來做 : zXY
			      C 	INVOKE Matrix3Mult, ADDR zxm, ADDR zm, ADDR xm
			      C 	Matrix3diveK ADDR zxm, 1000 ; 消去乘法倍率
			      C 	INVOKE Matrix3Mult, matrix, ADDR zxm, ADDR ym
			      C 	Matrix3diveK matrix, 1000	 
			      C ret
 00000B6F		      C EulerToRotMatrixProc EndP
			      C EulerToRotMatrix MACRO matrix, euler
			      C 	INVOKE EulerToRotMatrixProc, matrix, euler
			      C ENDM
			      C 
			      C 
			      C ; vector, rotationMatrix
 00000B6F		      C RotVectorProc PROC uses eax ebx esi edi, vec:DWORD, rotMat:DWORD 
			      C 	local result:Vector
 00000B79  8B 75 08	      C 	mov esi, vec
 00000B7C  8B 7D 0C	      C 	mov edi, rotMat
			      C 
			      C 	; x pos = x,y,z * 00,01,02
			      C 	mult [esi], [edi]
 00000B88  8B D8	      C 	mov ebx, eax
			      C 	mult [esi+4], [edi+4]
 00000B95  03 D8	      C 	add ebx, eax
			      C 	mult [esi+8], [edi+8]
 00000BA2  03 C3	      C 	add eax, ebx
			      C 	dive eax, 1000
 00000BAF  89 45 F4	      C 	mov result.x, eax
			      C 
			      C 	; y pos = x,y,z * 10,11,12
			      C 	mult [esi], [edi+12]
 00000BBC  8B D8	      C 	mov ebx, eax
			      C 	mult [esi+4], [edi+16]
 00000BC9  03 D8	      C 	add ebx, eax
			      C 	mult [esi+8], [edi+20]
 00000BD6  03 C3	      C 	add eax, ebx
			      C 	dive eax, 1000
 00000BE3  89 45 F8	      C 	mov result.y, eax
			      C 
			      C 	; y pos = x,y,z * 20,21,22
			      C 	mult [esi], [edi+24]
 00000BF0  8B D8	      C 	mov ebx, eax
			      C 	mult [esi+4], [edi+28]
 00000BFD  03 D8	      C 	add ebx, eax
			      C 	mult [esi+8], [edi+32]
 00000C0A  03 C3	      C 	add eax, ebx
			      C 	dive eax, 1000
 00000C17  89 45 FC	      C 	mov result.z, eax
			      C 
 00000C1A  8B 45 F4	      C 	mov eax,result.x
 00000C1D  89 06	      C 	mov [esi], eax
 00000C1F  8B 45 F8	      C 	mov eax,result.y
 00000C22  89 46 04	      C 	mov [esi+4], eax
 00000C25  8B 45 FC	      C 	mov eax,result.z
 00000C28  89 46 08	      C 	mov [esi+8], eax
			      C ret
 00000C33		      C RotVectorProc ENDP
			      C RotVector MACRO vec, rotMat
			      C 	INVOKE RotVectorProc, vec, rotMat
			      C ENDM
			      C 
			      C ; world position, screen output {pos.X, pos.Y, scale if need (1.000)}
			      C ; { -1, -1, -1 } means not in screen
 00000C33		      C World2CameraProc Proc uses eax ebx esi, pos:DWORD, cor:DWORD
			      C 	local position:vector, posOffset:vector, tempVec:vector, vLen:Dword
 00000C3C  8B 75 08	      C 	mov esi, pos
			      C 	copyvector ADDR position, pos
			      C 	copyvector ADDR posOffset, ADDR camera.pos
			      C 	rotVector ADDR position, ADDR cameraRotMat
			      C 	rotVector ADDR posOffset, ADDR cameraRotMat
			      C 	subVector ADDR position, ADDR posOffset
			      C 	isBE position.z, CameraDepth
			      C 	.IF BF == T
			      C 		setVector position, -1, -1, -1
 00000C99  50		     1C push eax
 00000C9A  B8 FFFFFFFF	     1C 	mov eax,-1
 00000C9F  89 45 F4	     1C 	mov position.x, eax
 00000CA2  B8 FFFFFFFF	     1C 	mov eax,-1
 00000CA7  89 45 F8	     1C 	mov position.y, eax
 00000CAA  B8 FFFFFFFF	     1C 	mov eax,-1
 00000CAF  89 45 FC	     1C 	mov position.z, eax
 00000CB2  58		     1C pop eax
 00000CB3  EB 56	      C 		jmp World2CameraProcEnd
			      C 	.EndIF
 00000CB5  8B 75 0C	      C 	mov esi, cor
			      C 
			      C 	mult cameraDepth, 1000
			      C 	dive eax, position.z
			      C 
			      C 	mulVector ADDR position, eax
			      C 	divVector ADDR position, 1000
			      C 	; toDo z as scale
			      C 
			      C 	
			      C 
 00000CE9  89 46 08	      C 	mov [esi+8], eax ;output z as scale
			      C 	
			      C 	; screen offset to mid
 00000CEC  8B 45 F4	      C 	mov eax, position.x
 00000CEF  83 C0 50	      C 	add eax, 80
 00000CF2  89 45 F4	      C 	mov position.x, eax
 00000CF5  8B 45 F8	      C 	mov eax, position.y
 00000CF8  F7 D8	      C 	neg eax
 00000CFA  83 C0 32	      C 	add eax, 50
 00000CFD  89 45 F8	      C 	mov position.y, eax
			      C 
 00000D00  8B 45 F4	      C 	mov eax, position.x
 00000D03  89 06	      C 	mov [esi], eax
 00000D05  8B 45 F8	      C 	mov eax, position.y
 00000D08  89 46 04	      C 	mov [esi+4], eax
 00000D0B		      C 	World2CameraProcEnd:
			      C ret
 00000D12		      C World2CameraProc ENDP
FinalProject\MathMethod/RotationMatrix.asm(161) : warning A6004:procedure argument or local not referenced : tempVec
FinalProject\MathMethod/RotationMatrix.asm(161) : warning A6004:procedure argument or local not referenced : vLen
			      C World2Camera MACRO pos, cor
			      C 	INVOKE World2CameraProc, pos, cor
			      C ENDM
			      C 
				INCLUDE DrawMethod/DrawCore.asm
 00000D12		      C SetScreen Proc uses esi ecx ax, color:word
 00000D19  66| 8B 45 08	      C mov ax, color
 00000D1D  BE 00000014 R      C 	mov esi, OFFSET layoutAttributes
 00000D22  B9 00003E80	      C 	mov ecx, 16000
 00000D27		      C 	SetScreenLoop:
 00000D27  66| 89 06	      C 		mov [esi], ax
 00000D2A  83 C6 02	      C 		add esi,2
 00000D2D  E2 F8	      C 	loop SetScreenLoop
			      C ret
 00000D37		      C SetScreen EndP
			      C 
 00000D37		      C SetPixelProc Proc uses eax ebx, x:dword,y:dword, color:WORD
 00000D3C  8B 45 0C	      C 	mov eax, y
 00000D3F  BB 00000140	      C 	mov ebx, 320
 00000D44  F7 E3	      C 	mul ebx
 00000D46  03 45 08	      C 	add eax, x
 00000D49  03 45 08	      C 	add eax, x
 00000D4C  BE 00000014 R      C 	mov esi, OFFSET layoutAttributes
 00000D51  03 F0	      C 	add esi, eax
 00000D53  66| 8B 5D 10	      C 	mov bx, color
 00000D57  66| 89 1E	      C 	mov [esi], bx
			      C ret
 00000D60		      C SetPixelProc ENDP
			      C SetPixel Macro x,y,color
			      C 	Invoke SetPixelProc, x, y, color
			      C EndM
			      C 
			      C 
 00000D60		      C RePaint Proc uses esi ecx
			      C 	local writeCount:word, pos:COORD
			      C 
 00000D68  66| B8 0000	      C 	mov ax, 0
 00000D6C  66| 89 45 F8	      C 	mov pos.x, ax
 00000D70  66| B8 0000	      C 	mov ax, 0
 00000D74  66| 89 45 FA	      C 	mov pos.y, ax
			      C 
 00000D78  8D 35 00000014 R   C 	lea esi, layoutAttributes
 00000D7E  B9 00000064	      C 	mov ecx, 100
 00000D83		      C 	RePaintLoop:
 00000D83  51		      C 	push ecx
			      C 	INVOKE WriteConsoleOutputAttribute, ; change cell setting
			      C 		consoleHandle,
			      C 		esi,
			      C 		160,
			      C 		pos,
			      C 		ADDR writeCount
 00000D9C  66| FF 45 FA	      C 	inc pos.y
 00000DA0  81 C6 00000140     C 	add esi, 320
 00000DA6  59		      C 	pop ecx
 00000DA7  E2 DA	      C 	loop RePaintLoop
			      C ret
 00000DAD		      C RePaint ENDP
			      C 
 00000DAD		      C ShowColor Proc uses ax bx ecx 
 00000DB2  B9 0000000F	      C 	mov ecx, 15
 00000DB7  66| BB 0000	      C 	mov bx ,00h
 00000DBB		      C 	ShowColorLoop:
			      C 	INVOKE setScreen, bx
 00000DC5  E8 FFFFFF96	      C 	call repaint
 00000DCA  E8 00000000 E      C 	call readChar
 00000DCF  66| 83 C3 10	      C 	add bx, 010h
 00000DD3  E2 E6	      C 	loop ShowColorLoop
			      C ret
 00000DDB		      C ShowColor EndP
			      C 
				INCLUDE DrawMethod/DrawLine.asm
			      C ; point is ptr of a vector {x, y, not use}
 00000DDB		      C DrawLineProc Proc uses eax ebx ecx edx esi edi, fromPtr:DWORD, toPtr:DWORD, color:WORD
			      C 	local from:vector, to:vector, posOffset:vector
			      C 	local iLoop:DWORD, len:DWORD
 00000DE7  8B 75 08	      C 	mov esi, fromPtr
 00000DEA  8B 7D 0C	      C 	mov edi, toPtr
 00000DED  8B 06	      C 	mov eax, [esi]
 00000DEF  89 45 F4	      C 	mov from.x, eax
 00000DF2  8B 46 04	      C 	mov eax, [esi+4]
 00000DF5  89 45 F8	      C 	mov from.y, eax
 00000DF8  8B 07	      C 	mov eax, [edi]
 00000DFA  89 45 E8	      C 	mov to.x, eax
 00000DFD  8B 47 04	      C 	mov eax, [edi+4]
 00000E00  89 45 EC	      C 	mov to.y, eax
			      C 
			      C 	copyVector ADDR posOffset, ADDR to
			      C 	subVector ADDR posOffset, ADDR from
 00000E1D  C7 45 E4	      C 	mov posOffset.z, 0
	   00000000
			      C 	VectorLen ADDR posOffset
 00000E2D  89 45 D4	      C 	mov len, eax
			      C 	mulVector ADDR from, 1000
			      C 	mulVector ADDR posOffset, 1000
			      C 	divVector ADDR posOffset, len
			      C 
 00000E58  C7 45 D8	      C 	mov iLoop, 0
	   00000000
 00000E5F		      C 	DrawLineProcLoopI:
 00000E5F  FF 45 D8	      C 		inc iLoop
			      C 		isBE iLoop, len
			      C 		jf DrawLineProcEnd
 00000E6D  80 3D 0000FAF6 R  1C 	cmp BF, F
	   00
 00000E74  0F 84 00000096    1C 	je DrawLineProcEnd
			      C 
			      C 		mult posOffset.x, iLoop
 00000E85  03 45 F4	      C 		add eax, from.x
			      C 		dive eax, 1000
 00000E93  8B D8	      C 		mov ebx, eax
			      C 		mult posOffset.y, iLoop
 00000EA0  03 45 F8	      C 		add eax, from.y
			      C 		dive eax, 1000
			      C 
			      C 		isB ebx, 0
			      C 		jt DrawLineProcLoopI
 00000EB6  80 3D 0000FAF6 R  1C 	cmp BF, T
	   01
 00000EBD  74 A0	     1C 	je DrawLineProcLoopI
			      C 		isA ebx, 159
			      C 		jt DrawLineProcLoopI
 00000ECA  80 3D 0000FAF6 R  1C 	cmp BF, T
	   01
 00000ED1  74 8C	     1C 	je DrawLineProcLoopI
			      C 		isB eax, 0
			      C 		jt DrawLineProcLoopI
 00000EDB  80 3D 0000FAF6 R  1C 	cmp BF, T
	   01
 00000EE2  0F 84 FFFFFF77    1C 	je DrawLineProcLoopI
			      C 		isA eax, 99
			      C 		jt DrawLineProcLoopI
 00000EF0  80 3D 0000FAF6 R  1C 	cmp BF, T
	   01
 00000EF7  0F 84 FFFFFF62    1C 	je DrawLineProcLoopI
			      C 
			      C 		setPixel ebx, eax, color
			      C 
 00000F0B  E9 FFFFFF4F	      C 		jmp DrawLineProcLoopI
 00000F10		      C 	DrawLineProcEnd:
			      C ret
 00000F1A		      C DrawLineProc ENDP
			      C 
				INCLUDE DrawMethod/DrawSphere.asm
			      C ; info is ptr of a vector
			      C ; { coord.x, coord.y, r }
 00000F1A		      C DrawSphereProc Proc uses eax ebx ecx edx esi, infoPtr:DWORD, color:WORD
			      C 	local maxX:DWORD,maxY:DWORD,minX:DWORD,minY:DWORD
			      C 	local originPos:vector, targetPos:vector
			      C 	local iLoop:DWORD, jLoop:DWORD, limit:DWORD
 00000F25  8B 75 08	      C 	mov esi, infoPtr
			      C 	isE [esi], -1
 00000F31  A0 0000FAF6 R      C 	mov al,BF
			      C 	isE [esi+4], -1
 00000F40  8A 25 0000FAF6 R   C 	mov ah,BF
			      C 	and2 ah, bl
			      C 	.IF BF == T
 00000F5A  E9 00000150	      C 		jmp DrawSphereProcEnd
			      C 	.EndIF
			      C 
 00000F5F  8B 46 08	      C 	mov eax, [esi+8]
 00000F62  89 45 CC	      C 	mov limit, eax
			      C 	copyVector ADDR originPos, infoPtr
 00000F71  C7 45 EC	      C 	mov originPos.z, 0
	   00000000
 00000F78  C7 45 E0	      C 	mov targetPos.z, 0
	   00000000
			      C 
 00000F7F  8B 06	      C 	mov eax, [esi]
 00000F81  03 46 08	      C 	add eax, [esi+8]
			      C 	isB eax, 0
			      C 	jt DrawSphereProcEnd
 00000F8C  80 3D 0000FAF6 R  1C 	cmp BF, T
	   01
 00000F93  0F 84 00000116    1C 	je DrawSphereProcEnd
			      C 	clamp eax, 0, 159
 00000FA6  89 45 FC	      C 	mov maxX, eax
 00000FA9  8B 75 08	      C 	mov esi, infoPtr
 00000FAC  8B 06	      C 	mov eax, [esi]
 00000FAE  2B 46 08	      C 	sub eax, [esi+8]
			      C 	isA eax, 159
			      C 	jt DrawSphereProcEnd
 00000FBC  80 3D 0000FAF6 R  1C 	cmp BF, T
	   01
 00000FC3  0F 84 000000E6    1C 	je DrawSphereProcEnd
			      C 	clamp eax, 0, 159
 00000FD6  89 45 F4	      C 	mov minX, eax
			      C 
 00000FD9  8B 75 08	      C 	mov esi, infoPtr
 00000FDC  8B 46 04	      C 	mov eax, [esi+4]
 00000FDF  03 46 08	      C 	add eax, [esi+8]
			      C 	isB eax, 0
			      C 	jt DrawSphereProcEnd
 00000FEA  80 3D 0000FAF6 R  1C 	cmp BF, T
	   01
 00000FF1  0F 84 000000B8    1C 	je DrawSphereProcEnd
			      C 	clamp eax, 0, 99
 00001001  89 45 F8	      C 	mov maxY, eax
 00001004  8B 75 08	      C 	mov esi, infoPtr
 00001007  8B 46 04	      C 	mov eax, [esi+4]
 0000100A  2B 46 08	      C 	sub eax, [esi+8]
			      C 	isA eax, 99
			      C 	jt DrawSphereProcEnd
 00001015  80 3D 0000FAF6 R  1C 	cmp BF, T
	   01
 0000101C  0F 84 0000008D    1C 	je DrawSphereProcEnd
			      C 	clamp eax, 0, 99
 0000102C  89 45 F0	      C 	mov minY, eax
 0000102F  8B 45 F4	      C 	mov eax, minX
 00001032  89 45 D4	      C 	mov iLoop, eax
 00001035		      C 	DrawSphereProcLoopI:
 00001035  8B 45 F0	      C 		mov eax, minY
 00001038  89 45 D0	      C 		mov jLoop, eax
 0000103B		      C 		DrawSphereProcLoopJ:
 0000103B  8B 45 D4	      C 			mov eax, iLoop
 0000103E  89 45 D8	      C 			mov targetPos.x, eax
 00001041  8B 45 D0	      C 			mov eax, jLoop
 00001044  89 45 DC	      C 			mov targetPos.y, eax
			      C 			subVector ADDR targetPos, ADDR originPos
			      C 			vectorLen ADDR targetPos
			      C 			isBE eax, limit
			      C 			jf DrawSphereProcDontDraw
 00001066  80 3D 0000FAF6 R  1C 	cmp BF, F
	   00
 0000106D  74 12	     1C 	je DrawSphereProcDontDraw
			      C 				setPixel iLoop, jLoop, color
 00001081		      C 			DrawSphereProcDontDraw:
 00001081  FF 45 D0	      C 		inc jLoop
			      C 		isB jLoop, maxY
			      C 		jt DrawSphereProcLoopJ
 0000108F  80 3D 0000FAF6 R  1C 	cmp BF, T
	   01
 00001096  74 A3	     1C 	je DrawSphereProcLoopJ
 00001098  FF 45 D4	      C 	inc iLoop
			      C 	isB iLoop, maxX
			      C 	jt DrawSphereProcLoopI
 000010A6  80 3D 0000FAF6 R  1C 	cmp BF, T
	   01
 000010AD  74 86	     1C 	je DrawSphereProcLoopI
 000010AF		      C 	DrawSphereProcEnd:
			      C ret
 000010B8		      C DrawSphereProc ENDP
			      C 
				INCLUDE Core/Movement.asm
 000010B8		      C CameraMovement Proc uses eax ebx
			      C 	local moveVec:vector
 000010C0  66| A1	      C 	mov ax, keyDownCode
	   0000FAF4 R
			      C 	.IF ax == 01177h ; W
			      C 		setVector moveVec,0 ,0 ,moveSpeed
 000010CC  50		     1C push eax
 000010CD  B8 00000000	     1C 	mov eax,0
 000010D2  89 45 F4	     1C 	mov moveVec.x, eax
 000010D5  B8 00000000	     1C 	mov eax,0
 000010DA  89 45 F8	     1C 	mov moveVec.y, eax
 000010DD  A1 0000FAF0 R     1C 	mov eax,moveSpeed
 000010E2  89 45 FC	     1C 	mov moveVec.z, eax
 000010E5  58		     1C pop eax
			      C 		rotVector ADDR moveVec, ADDR neg_cameraRotMat
 000010F4  C7 45 F8	      C 		mov moveVec.y, 0
	   00000000
			      C 		addVector ADDR camera.pos, ADDR moveVec
			      C 	.EndIF
			      C 	.IF ax == 01E61h ; A
 0000110F  8B 1D 0000FAF0 R   C 		mov ebx, moveSpeed
 00001115  F7 DB	      C 		neg ebx
			      C 		setVector moveVec,ebx ,0 ,0
 00001117  50		     1C push eax
 00001118  8B C3	     1C 	mov eax,ebx
 0000111A  89 45 F4	     1C 	mov moveVec.x, eax
 0000111D  B8 00000000	     1C 	mov eax,0
 00001122  89 45 F8	     1C 	mov moveVec.y, eax
 00001125  B8 00000000	     1C 	mov eax,0
 0000112A  89 45 FC	     1C 	mov moveVec.z, eax
 0000112D  58		     1C pop eax
			      C 		rotVector ADDR moveVec, ADDR neg_cameraRotMat
 0000113C  C7 45 F8	      C 		mov moveVec.y, 0
	   00000000
			      C 		addVector ADDR camera.pos, ADDR moveVec
			      C 	.EndIF
			      C 	.IF ax == 01F73h ; S
 00001157  8B 1D 0000FAF0 R   C 		mov ebx, moveSpeed
 0000115D  F7 DB	      C 		neg ebx
			      C 		setVector moveVec,0 ,0 ,ebx
 0000115F  50		     1C push eax
 00001160  B8 00000000	     1C 	mov eax,0
 00001165  89 45 F4	     1C 	mov moveVec.x, eax
 00001168  B8 00000000	     1C 	mov eax,0
 0000116D  89 45 F8	     1C 	mov moveVec.y, eax
 00001170  8B C3	     1C 	mov eax,ebx
 00001172  89 45 FC	     1C 	mov moveVec.z, eax
 00001175  58		     1C pop eax
			      C 		rotVector ADDR moveVec, ADDR neg_cameraRotMat
 00001184  C7 45 F8	      C 		mov moveVec.y, 0
	   00000000
			      C 		addVector ADDR camera.pos, ADDR moveVec
			      C 	.EndIF
			      C 	.IF ax == 02064h ; D
			      C 		setVector moveVec,moveSpeed ,0 ,0
 0000119F  50		     1C push eax
 000011A0  A1 0000FAF0 R     1C 	mov eax,moveSpeed
 000011A5  89 45 F4	     1C 	mov moveVec.x, eax
 000011A8  B8 00000000	     1C 	mov eax,0
 000011AD  89 45 F8	     1C 	mov moveVec.y, eax
 000011B0  B8 00000000	     1C 	mov eax,0
 000011B5  89 45 FC	     1C 	mov moveVec.z, eax
 000011B8  58		     1C pop eax
			      C 		rotVector ADDR moveVec, ADDR neg_cameraRotMat
 000011C7  C7 45 F8	      C 		mov moveVec.y, 0 
	   00000000
			      C 		addVector ADDR camera.pos, ADDR moveVec
			      C 	.EndIF
			      C 
			      C 	.IF ax == 01769h ; I
 000011E2  A1 0000FA20 R      C 		mov eax, camera.euler.x
 000011E7  83 E8 01	      C 		sub eax, 1
			      C 		degNor eax
 000011F0  A3 0000FA20 R      C 		mov camera.euler.x, eax
			      C 	.EndIF
			      C 	.IF ax == 0256Bh ; K
 000011FB  A1 0000FA20 R      C 		mov eax, camera.euler.x
 00001200  83 C0 01	      C 		add eax, 1
			      C 		degNor eax
 00001209  A3 0000FA20 R      C 		mov camera.euler.x, eax
			      C 	.EndIF
			      C 	.IF ax == 9322 ; J
 00001214  A1 0000FA24 R      C 		mov eax, camera.euler.y
 00001219  83 E8 01	      C 		sub eax, 1
			      C 		degNor eax
 00001222  A3 0000FA24 R      C 		mov camera.euler.y, eax
			      C 	.EndIF
			      C 	.IF ax == 9836 ; L
 0000122D  A1 0000FA24 R      C 		mov eax, camera.euler.y
 00001232  83 C0 01	      C 		add eax, 1
			      C 		degNor eax
 0000123B  A3 0000FA24 R      C 		mov camera.euler.y, eax
			      C 	.EndIF
			      C 	.IF ax == 14624 ; space
 00001246  A1 0000FA18 R      C 		mov eax, camera.pos.y
 0000124B  03 05 0000FAF0 R   C 		add eax, moveSpeed
 00001251  A3 0000FA18 R      C 		mov camera.pos.y, eax
			      C 	.EndIF
			      C 	.IF ax == 11386 ; z
 0000125C  A1 0000FA18 R      C 		mov eax, camera.pos.y
 00001261  2B 05 0000FAF0 R   C 		sub eax, moveSpeed
 00001267  A3 0000FA18 R      C 		mov camera.pos.y, eax
			      C 	.EndIF
			      C ret
 00001270		      C CameraMovement EndP
			      C 
				INCLUDE Core/System.asm
 00001270		      C init Proc
			      C ; Get HANDLE
			      C ;=============================================================================
			      C 	INVOKE GetStdHandle, STD_OUTPUT_HANDLE
 00001277  A3 00000000 R      C 	mov consoleHandle,eax
			      C 	
			      C ; Set Display rect
			      C ;=============================================================================
			      C 	INVOKE SetConsoleWindowInfo,      ; set position of console window
			      C 		consoleHandle,            ; screen buffer handle
			      C 		TRUE,             ; coordinate type
			      C 		ADDR windowRect  ; ptr to window rectangle
 0000128E  C3		      C ret
 0000128F		      C init ENDP
			      C 
 0000128F		      C updateSystemValue Proc
			      C local Euler:Vector
			      C 	; camera
			      C 	copyVector ADDR Euler, ADDR camera.euler
			      C 	EulerToRotMatrix ADDR neg_cameraRotMat, ADDR Euler
			      C 	mulVector ADDR Euler, -1
			      C 	EulerToRotMatrix ADDR cameraRotMat, ADDR Euler
			      C 	setVector cameraFacing, 0, 0 ,1000 ; 1.000
 000012CA  50		     1C push eax
 000012CB  B8 00000000	     1C 	mov eax,0
 000012D0  A3 0000FA2C R     1C 	mov cameraFacing.x, eax
 000012D5  B8 00000000	     1C 	mov eax,0
 000012DA  A3 0000FA30 R     1C 	mov cameraFacing.y, eax
 000012DF  B8 000003E8	     1C 	mov eax,1000
 000012E4  A3 0000FA34 R     1C 	mov cameraFacing.z, eax
 000012E9  58		     1C pop eax
			      C 	RotVector ADDR cameraFacing, ADDR cameraRotMat
			      C ret
 000012FB		      C updateSystemValue EndP
			      C 
 000012FB		      C logSystem Proc uses eax
			      C 	logc "C"
 000012FC  66| 50	     1C 	push ax
 000012FE  B0 43	     1C 	mov al, "C"
 00001300  E8 00000000 E     1C 	call writeChar
 00001305  66| 58	     1C 	pop ax
			      C 	logc "a"
 00001307  66| 50	     1C 	push ax
 00001309  B0 61	     1C 	mov al, "a"
 0000130B  E8 00000000 E     1C 	call writeChar
 00001310  66| 58	     1C 	pop ax
			      C 	logc "m"
 00001312  66| 50	     1C 	push ax
 00001314  B0 6D	     1C 	mov al, "m"
 00001316  E8 00000000 E     1C 	call writeChar
 0000131B  66| 58	     1C 	pop ax
			      C 	logc "e"
 0000131D  66| 50	     1C 	push ax
 0000131F  B0 65	     1C 	mov al, "e"
 00001321  E8 00000000 E     1C 	call writeChar
 00001326  66| 58	     1C 	pop ax
			      C 	logc "r"
 00001328  66| 50	     1C 	push ax
 0000132A  B0 72	     1C 	mov al, "r"
 0000132C  E8 00000000 E     1C 	call writeChar
 00001331  66| 58	     1C 	pop ax
			      C 	logc "a"
 00001333  66| 50	     1C 	push ax
 00001335  B0 61	     1C 	mov al, "a"
 00001337  E8 00000000 E     1C 	call writeChar
 0000133C  66| 58	     1C 	pop ax
			      C 	logc " "
 0000133E  66| 50	     1C 	push ax
 00001340  B0 20	     1C 	mov al, " "
 00001342  E8 00000000 E     1C 	call writeChar
 00001347  66| 58	     1C 	pop ax
			      C 	logc ":"
 00001349  66| 50	     1C 	push ax
 0000134B  B0 3A	     1C 	mov al, ":"
 0000134D  E8 00000000 E     1C 	call writeChar
 00001352  66| 58	     1C 	pop ax
 00001354  E8 00000000 E      C 	call crlf
			      C 	logc "P"
 00001359  66| 50	     1C 	push ax
 0000135B  B0 50	     1C 	mov al, "P"
 0000135D  E8 00000000 E     1C 	call writeChar
 00001362  66| 58	     1C 	pop ax
			      C 	logc "o"
 00001364  66| 50	     1C 	push ax
 00001366  B0 6F	     1C 	mov al, "o"
 00001368  E8 00000000 E     1C 	call writeChar
 0000136D  66| 58	     1C 	pop ax
			      C 	logc "s"
 0000136F  66| 50	     1C 	push ax
 00001371  B0 73	     1C 	mov al, "s"
 00001373  E8 00000000 E     1C 	call writeChar
 00001378  66| 58	     1C 	pop ax
			      C 	logc " "
 0000137A  66| 50	     1C 	push ax
 0000137C  B0 20	     1C 	mov al, " "
 0000137E  E8 00000000 E     1C 	call writeChar
 00001383  66| 58	     1C 	pop ax
			      C 	logc ":"
 00001385  66| 50	     1C 	push ax
 00001387  B0 3A	     1C 	mov al, ":"
 00001389  E8 00000000 E     1C 	call writeChar
 0000138E  66| 58	     1C 	pop ax
			      C 	logv camera.pos
 00001390  50		     1C 	push eax
 00001391  66| 50	     2C 	push ax
 00001393  B0 28	     2C 	mov al, "("
 00001395  E8 00000000 E     2C 	call writeChar
 0000139A  66| 58	     2C 	pop ax
 0000139C  A1 0000FA14 R     1C 	mov eax, camera.pos.x
 000013A1  E8 00000000 E     1C 	call writeInt
 000013A6  66| 50	     2C 	push ax
 000013A8  B0 2C	     2C 	mov al, ","
 000013AA  E8 00000000 E     2C 	call writeChar
 000013AF  66| 58	     2C 	pop ax
 000013B1  66| 50	     2C 	push ax
 000013B3  B0 20	     2C 	mov al, " "
 000013B5  E8 00000000 E     2C 	call writeChar
 000013BA  66| 58	     2C 	pop ax
 000013BC  A1 0000FA18 R     1C 	mov eax, camera.pos.y
 000013C1  E8 00000000 E     1C 	call writeInt
 000013C6  66| 50	     2C 	push ax
 000013C8  B0 2C	     2C 	mov al, ","
 000013CA  E8 00000000 E     2C 	call writeChar
 000013CF  66| 58	     2C 	pop ax
 000013D1  66| 50	     2C 	push ax
 000013D3  B0 20	     2C 	mov al, " "
 000013D5  E8 00000000 E     2C 	call writeChar
 000013DA  66| 58	     2C 	pop ax
 000013DC  A1 0000FA1C R     1C 	mov eax, camera.pos.z
 000013E1  E8 00000000 E     1C 	call writeInt
 000013E6  66| 50	     2C 	push ax
 000013E8  B0 29	     2C 	mov al, ")"
 000013EA  E8 00000000 E     2C 	call writeChar
 000013EF  66| 58	     2C 	pop ax
 000013F1  E8 00000000 E     1C 	call crlf
 000013F6  58		     1C 	pop eax
			      C 	logc "R"
 000013F7  66| 50	     1C 	push ax
 000013F9  B0 52	     1C 	mov al, "R"
 000013FB  E8 00000000 E     1C 	call writeChar
 00001400  66| 58	     1C 	pop ax
			      C 	logc "o"
 00001402  66| 50	     1C 	push ax
 00001404  B0 6F	     1C 	mov al, "o"
 00001406  E8 00000000 E     1C 	call writeChar
 0000140B  66| 58	     1C 	pop ax
			      C 	logc "t"
 0000140D  66| 50	     1C 	push ax
 0000140F  B0 74	     1C 	mov al, "t"
 00001411  E8 00000000 E     1C 	call writeChar
 00001416  66| 58	     1C 	pop ax
			      C 	logc " "
 00001418  66| 50	     1C 	push ax
 0000141A  B0 20	     1C 	mov al, " "
 0000141C  E8 00000000 E     1C 	call writeChar
 00001421  66| 58	     1C 	pop ax
			      C 	logc ":"
 00001423  66| 50	     1C 	push ax
 00001425  B0 3A	     1C 	mov al, ":"
 00001427  E8 00000000 E     1C 	call writeChar
 0000142C  66| 58	     1C 	pop ax
			      C 	logv camera.euler
 0000142E  50		     1C 	push eax
 0000142F  66| 50	     2C 	push ax
 00001431  B0 28	     2C 	mov al, "("
 00001433  E8 00000000 E     2C 	call writeChar
 00001438  66| 58	     2C 	pop ax
 0000143A  A1 0000FA20 R     1C 	mov eax, camera.euler.x
 0000143F  E8 00000000 E     1C 	call writeInt
 00001444  66| 50	     2C 	push ax
 00001446  B0 2C	     2C 	mov al, ","
 00001448  E8 00000000 E     2C 	call writeChar
 0000144D  66| 58	     2C 	pop ax
 0000144F  66| 50	     2C 	push ax
 00001451  B0 20	     2C 	mov al, " "
 00001453  E8 00000000 E     2C 	call writeChar
 00001458  66| 58	     2C 	pop ax
 0000145A  A1 0000FA24 R     1C 	mov eax, camera.euler.y
 0000145F  E8 00000000 E     1C 	call writeInt
 00001464  66| 50	     2C 	push ax
 00001466  B0 2C	     2C 	mov al, ","
 00001468  E8 00000000 E     2C 	call writeChar
 0000146D  66| 58	     2C 	pop ax
 0000146F  66| 50	     2C 	push ax
 00001471  B0 20	     2C 	mov al, " "
 00001473  E8 00000000 E     2C 	call writeChar
 00001478  66| 58	     2C 	pop ax
 0000147A  A1 0000FA28 R     1C 	mov eax, camera.euler.z
 0000147F  E8 00000000 E     1C 	call writeInt
 00001484  66| 50	     2C 	push ax
 00001486  B0 29	     2C 	mov al, ")"
 00001488  E8 00000000 E     2C 	call writeChar
 0000148D  66| 58	     2C 	pop ax
 0000148F  E8 00000000 E     1C 	call crlf
 00001494  58		     1C 	pop eax
 00001495  E8 00000000 E      C 	call crlf
			      C 	logc "K"
 0000149A  66| 50	     1C 	push ax
 0000149C  B0 4B	     1C 	mov al, "K"
 0000149E  E8 00000000 E     1C 	call writeChar
 000014A3  66| 58	     1C 	pop ax
			      C 	logc "e"
 000014A5  66| 50	     1C 	push ax
 000014A7  B0 65	     1C 	mov al, "e"
 000014A9  E8 00000000 E     1C 	call writeChar
 000014AE  66| 58	     1C 	pop ax
			      C 	logc "y"
 000014B0  66| 50	     1C 	push ax
 000014B2  B0 79	     1C 	mov al, "y"
 000014B4  E8 00000000 E     1C 	call writeChar
 000014B9  66| 58	     1C 	pop ax
			      C 	logc "C"
 000014BB  66| 50	     1C 	push ax
 000014BD  B0 43	     1C 	mov al, "C"
 000014BF  E8 00000000 E     1C 	call writeChar
 000014C4  66| 58	     1C 	pop ax
			      C 	logc "o"
 000014C6  66| 50	     1C 	push ax
 000014C8  B0 6F	     1C 	mov al, "o"
 000014CA  E8 00000000 E     1C 	call writeChar
 000014CF  66| 58	     1C 	pop ax
			      C 	logc "d"
 000014D1  66| 50	     1C 	push ax
 000014D3  B0 64	     1C 	mov al, "d"
 000014D5  E8 00000000 E     1C 	call writeChar
 000014DA  66| 58	     1C 	pop ax
			      C 	logc "e"
 000014DC  66| 50	     1C 	push ax
 000014DE  B0 65	     1C 	mov al, "e"
 000014E0  E8 00000000 E     1C 	call writeChar
 000014E5  66| 58	     1C 	pop ax
			      C 	logc " "
 000014E7  66| 50	     1C 	push ax
 000014E9  B0 20	     1C 	mov al, " "
 000014EB  E8 00000000 E     1C 	call writeChar
 000014F0  66| 58	     1C 	pop ax
			      C 	logc ":"
 000014F2  66| 50	     1C 	push ax
 000014F4  B0 3A	     1C 	mov al, ":"
 000014F6  E8 00000000 E     1C 	call writeChar
 000014FB  66| 58	     1C 	pop ax
			      C 	logc " "
 000014FD  66| 50	     1C 	push ax
 000014FF  B0 20	     1C 	mov al, " "
 00001501  E8 00000000 E     1C 	call writeChar
 00001506  66| 58	     1C 	pop ax
 00001508  0F BF 05	      C 	movsx eax, keyDownCode
	   0000FAF4 R
			      C 	log eax
 0000150F  50		     1C 	push eax
 00001510  8B C0	     1C 	mov eax, eax
 00001512  E8 00000000 E     1C 	call writeInt
 00001517  E8 00000000 E     1C 	call crlf
 0000151C  58		     1C 	pop eax
			      C 	
			      C ret
 0000151F		      C logSystem EndP
			      C 
				  
				 temp MACRO oo, color
					VectorLen ADDR oo
					world2camera ADDR oo, ADDR sc  ; posX, posY, depth
					mov sc.z, 1
					INVOKE DrawSphereproc, ADDR sc, color ; posX, posY, r
				 ENDM
				      
 0000151F			main PROC
 0000151F  E8 FFFFFD4C		call init
 00001524  5E			pop esi
 00001525  E8 00000000 E	call ClrScr
 0000152A			appLoop:    
 0000152A  E8 FFFFFD60			call UpdateSystemValue
					INVOKE SetConsoleCursorPosition, consoleHandle, cursorPos  
					Invoke SetScreen, 070h

					; draw ground
 00001547  B8 00000032			mov eax, 50
 0000154C  8B 1D 0000FA20 R		mov ebx, camera.euler.x
					isA ebx, 180
					.IF BF == T
 00001566  81 EB 00000168			sub ebx, 360
					.EndIF 
					mult ebx, 10
					mult eax, 40 ; 4.0
					dive eax, 100
 00001584  8B D8			mov ebx, eax 
 00001586  B8 00000032			mov eax, 50
 0000158B  2B C3			sub eax, ebx
					
					isB eax, 100
					jf groundEnd
 00001595  80 3D 0000FAF6 R  1		cmp BF, F
	   00
 0000159C  74 39	     1		je groundEnd
					isAE eax, 0
					jf groundEnd
 000015A6  80 3D 0000FAF6 R  1		cmp BF, F
	   00
 000015AD  74 28	     1		je groundEnd
 000015AF				testLoopA:
 000015AF  B9 000000A0				mov ecx, 160
 000015B4					testLoopB:
 000015B4  8B D9					mov ebx, ecx
 000015B6  4B						dec ebx
							setPixel ebx, eax, 080h
 000015C3  E2 EF					loop testLoopB
 000015C5  40					inc eax
						isB eax, 100
						jt testLoopA
 000015CE  80 3D 0000FAF6 R  1		cmp BF, T
	   01
 000015D5  74 D8	     1		je testLoopA
 000015D7				groundEnd:


					; draw sphere
					;temp obj1, 010h
					;temp obj2, 020h
					;temp obj3, 030h
					;temp obj4, 040h
					;temp obj5, 050h
					;temp obj6, 0A0h
					;temp obj7, 0B0h
					;temp obj8, 090h  
					World2Camera ADDR obj1.pos, ADDR p1
					World2Camera ADDR obj2.pos, ADDR p2
					INVOKE DrawLineProc, ADDR p1, ADDR p2, 030h
					World2Camera ADDR obj3.pos, ADDR p2
					INVOKE DrawLineProc, ADDR p1, ADDR p2, 010h
					World2Camera ADDR obj4.pos, ADDR p2
					INVOKE DrawLineProc, ADDR p1, ADDR p2, 030h

					World2Camera ADDR obj5.pos, ADDR p1
					World2Camera ADDR obj3.pos, ADDR p2
					INVOKE DrawLineProc, ADDR p1, ADDR p2, 020h
					World2Camera ADDR obj2.pos, ADDR p2
					INVOKE DrawLineProc, ADDR p1, ADDR p2, 010h
					World2Camera ADDR obj8.pos, ADDR p2
					INVOKE DrawLineProc, ADDR p1, ADDR p2, 020h

					World2Camera ADDR obj7.pos, ADDR p1
					World2Camera ADDR obj2.pos, ADDR p2
					INVOKE DrawLineProc, ADDR p1, ADDR p2, 030h 
					World2Camera ADDR obj4.pos, ADDR p2
					INVOKE DrawLineProc, ADDR p1, ADDR p2, 030h
					World2Camera ADDR obj8.pos, ADDR p2
					INVOKE DrawLineProc, ADDR p1, ADDR p2, 010h

					World2Camera ADDR obj6.pos, ADDR p1
					World2Camera ADDR obj3.pos, ADDR p2
					INVOKE DrawLineProc, ADDR p1, ADDR p2, 020h
					World2Camera ADDR obj4.pos, ADDR p2
					INVOKE DrawLineProc, ADDR p1, ADDR p2, 010h
					World2Camera ADDR obj8.pos, ADDR p2
					INVOKE DrawLineProc, ADDR p1, ADDR p2, 020h

					setPixel 80, 50, 040h
					

 0000179E  E8 FFFFF5BD			call repaint  
 000017A3  E8 FFFFFB53			call logSystem   

 000017A8  E8 00000000 E		call ReadChar
 000017AD  66| A3			mov keyDownCode, ax
	   0000FAF4 R
 000017B3  E8 FFFFF900			call cameraMovement
					.IF keyDownCode != 283
 000017C3  E9 FFFFFD62				jmp appLoop
					.ENDIF
					exit     
 000017CF			main ENDP
				END main

Microsoft (R) Macro Assembler Version 14.29.30146.0	    12/24/22 17:46:22
FinalProject\main.asm					     Symbols 2 - 1




Macros:

                N a m e                 Type

Abs  . . . . . . . . . . . . . .	Proc
Clamp  . . . . . . . . . . . . .	Proc
Dive . . . . . . . . . . . . . .	Proc
EulerToRotMatrix . . . . . . . .	Proc
IsNeg  . . . . . . . . . . . . .	Proc
JF . . . . . . . . . . . . . . .	Proc
JT . . . . . . . . . . . . . . .	Proc
Matrix3DiveK . . . . . . . . . .	Proc
Matrix3MultK . . . . . . . . . .	Proc
Max2 . . . . . . . . . . . . . .	Proc
Max3 . . . . . . . . . . . . . .	Proc
Min2 . . . . . . . . . . . . . .	Proc
Min3 . . . . . . . . . . . . . .	Proc
MultF  . . . . . . . . . . . . .	Proc
Mult . . . . . . . . . . . . . .	Proc
RotVector  . . . . . . . . . . .	Proc
SetPixel . . . . . . . . . . . .	Proc
SetSphere  . . . . . . . . . . .	Proc
Sqrt . . . . . . . . . . . . . .	Proc
VectorLen  . . . . . . . . . . .	Proc
World2Camera . . . . . . . . . .	Proc
addVector  . . . . . . . . . . .	Proc
and2 . . . . . . . . . . . . . .	Proc
and3 . . . . . . . . . . . . . .	Proc
copyVector . . . . . . . . . . .	Proc
cos  . . . . . . . . . . . . . .	Proc
degNor . . . . . . . . . . . . .	Proc
divVector  . . . . . . . . . . .	Proc
fixLog . . . . . . . . . . . . .	Proc
isAE . . . . . . . . . . . . . .	Proc
isA  . . . . . . . . . . . . . .	Proc
isBE . . . . . . . . . . . . . .	Proc
isB  . . . . . . . . . . . . . .	Proc
isE  . . . . . . . . . . . . . .	Proc
logCor . . . . . . . . . . . . .	Proc
logc . . . . . . . . . . . . . .	Proc
logf . . . . . . . . . . . . . .	Proc
logm3  . . . . . . . . . . . . .	Proc
logvPtr  . . . . . . . . . . . .	Proc
logv . . . . . . . . . . . . . .	Proc
log  . . . . . . . . . . . . . .	Proc
mulVector  . . . . . . . . . . .	Proc
or2  . . . . . . . . . . . . . .	Proc
or3  . . . . . . . . . . . . . .	Proc
setVector  . . . . . . . . . . .	Proc
sin  . . . . . . . . . . . . . .	Proc
subVector  . . . . . . . . . . .	Proc
temp . . . . . . . . . . . . . .	Proc


Structures and Unions:

                N a m e                  Size
                                         Offset      Type

CONSOLE_CURSOR_INFO  . . . . . .	 00000008
  dwSize . . . . . . . . . . . .	 00000000	 DWord
  bVisible . . . . . . . . . . .	 00000004	 DWord
CONSOLE_SCREEN_BUFFER_INFO . . .	 00000016
  dwSize . . . . . . . . . . . .	 00000000	 DWord
  dwCursorPosition . . . . . . .	 00000004	 DWord
  wAttributes  . . . . . . . . .	 00000008	 Word
  srWindow . . . . . . . . . . .	 0000000A	 QWord
  dwMaximumWindowSize  . . . . .	 00000012	 DWord
COORD  . . . . . . . . . . . . .	 00000004
  X  . . . . . . . . . . . . . .	 00000000	 Word
  Y  . . . . . . . . . . . . . .	 00000002	 Word
FILETIME . . . . . . . . . . . .	 00000008
  loDateTime . . . . . . . . . .	 00000000	 DWord
  hiDateTime . . . . . . . . . .	 00000004	 DWord
FOCUS_EVENT_RECORD . . . . . . .	 00000004
  bSetFocus  . . . . . . . . . .	 00000000	 DWord
FPU_ENVIRON  . . . . . . . . . .	 0000001C
  controlWord  . . . . . . . . .	 00000000	 Word
  statusWord . . . . . . . . . .	 00000004	 Word
  tagWord  . . . . . . . . . . .	 00000008	 Word
  instrPointerOffset . . . . . .	 0000000C	 DWord
  instrPointerSelector . . . . .	 00000010	 DWord
  operandPointerOffset . . . . .	 00000014	 DWord
  operandPointerSelector . . . .	 00000018	 Word
INPUT_RECORD . . . . . . . . . .	 00000014
  EventType  . . . . . . . . . .	 00000000	 Word
  Event  . . . . . . . . . . . .	 00000004	 XmmWord
  bKeyDown . . . . . . . . . . .	 00000000	 DWord
  wRepeatCount . . . . . . . . .	 00000004	 Word
  wVirtualKeyCode  . . . . . . .	 00000006	 Word
  wVirtualScanCode . . . . . . .	 00000008	 Word
  uChar  . . . . . . . . . . . .	 0000000A	 Word
  UnicodeChar  . . . . . . . . .	 00000000	 Word
  AsciiChar  . . . . . . . . . .	 00000000	 Byte
  dwControlKeyState  . . . . . .	 0000000C	 DWord
  dwMousePosition  . . . . . . .	 00000000	 DWord
  dwButtonState  . . . . . . . .	 00000004	 DWord
  dwMouseControlKeyState . . . .	 00000008	 DWord
  dwEventFlags . . . . . . . . .	 0000000C	 DWord
  dwSize . . . . . . . . . . . .	 00000000	 DWord
  dwCommandId  . . . . . . . . .	 00000000	 DWord
  bSetFocus  . . . . . . . . . .	 00000000	 DWord
KEY_EVENT_RECORD . . . . . . . .	 00000010
  bKeyDown . . . . . . . . . . .	 00000000	 DWord
  wRepeatCount . . . . . . . . .	 00000004	 Word
  wVirtualKeyCode  . . . . . . .	 00000006	 Word
  wVirtualScanCode . . . . . . .	 00000008	 Word
  uChar  . . . . . . . . . . . .	 0000000A	 Word
  UnicodeChar  . . . . . . . . .	 00000000	 Word
  AsciiChar  . . . . . . . . . .	 00000000	 Byte
  dwControlKeyState  . . . . . .	 0000000C	 DWord
Line . . . . . . . . . . . . . .	 00000018
  b  . . . . . . . . . . . . . .	 00000000	 
  e  . . . . . . . . . . . . . .	 0000000C	 
MENU_EVENT_RECORD  . . . . . . .	 00000004
  dwCommandId  . . . . . . . . .	 00000000	 DWord
MOUSE_EVENT_RECORD . . . . . . .	 00000010
  dwMousePosition  . . . . . . .	 00000000	 DWord
  dwButtonState  . . . . . . . .	 00000004	 DWord
  dwMouseControlKeyState . . . .	 00000008	 DWord
  dwEventFlags . . . . . . . . .	 0000000C	 DWord
Matrix3  . . . . . . . . . . . .	 00000024
  n00  . . . . . . . . . . . . .	 00000000	 DWord
  n01  . . . . . . . . . . . . .	 00000004	 DWord
  n02  . . . . . . . . . . . . .	 00000008	 DWord
  n10  . . . . . . . . . . . . .	 0000000C	 DWord
  n11  . . . . . . . . . . . . .	 00000010	 DWord
  n12  . . . . . . . . . . . . .	 00000014	 DWord
  n20  . . . . . . . . . . . . .	 00000018	 DWord
  n21  . . . . . . . . . . . . .	 0000001C	 DWord
  n22  . . . . . . . . . . . . .	 00000020	 DWord
SMALL_RECT . . . . . . . . . . .	 00000008
  Left . . . . . . . . . . . . .	 00000000	 Word
  Top  . . . . . . . . . . . . .	 00000002	 Word
  Right  . . . . . . . . . . . .	 00000004	 Word
  Bottom . . . . . . . . . . . .	 00000006	 Word
SYSTEMTIME . . . . . . . . . . .	 00000010
  wYear  . . . . . . . . . . . .	 00000000	 Word
  wMonth . . . . . . . . . . . .	 00000002	 Word
  wDayOfWeek . . . . . . . . . .	 00000004	 Word
  wDay . . . . . . . . . . . . .	 00000006	 Word
  wHour  . . . . . . . . . . . .	 00000008	 Word
  wMinute  . . . . . . . . . . .	 0000000A	 Word
  wSecond  . . . . . . . . . . .	 0000000C	 Word
  wMilliseconds  . . . . . . . .	 0000000E	 Word
SphereData . . . . . . . . . . .	 00000010
  pos  . . . . . . . . . . . . .	 00000000	 
  r  . . . . . . . . . . . . . .	 0000000C	 DWord
Transform  . . . . . . . . . . .	 00000018
  pos  . . . . . . . . . . . . .	 00000000	 
  euler  . . . . . . . . . . . .	 0000000C	 
Vector . . . . . . . . . . . . .	 0000000C
  x  . . . . . . . . . . . . . .	 00000000	 DWord
  y  . . . . . . . . . . . . . .	 00000004	 DWord
  z  . . . . . . . . . . . . . .	 00000008	 DWord
WINDOW_BUFFER_SIZE_RECORD  . . .	 00000004
  dwSize . . . . . . . . . . . .	 00000000	 DWord


Segments and Groups:

                N a m e                 Size     Length   Align   Combine Class

FLAT . . . . . . . . . . . . . .	GROUP
STACK  . . . . . . . . . . . . .	32 Bit	 00001000 Para	  Stack	  'STACK'	 
_DATA  . . . . . . . . . . . . .	32 Bit	 0000FBAB Para	  Public  'DATA'	
_TEXT  . . . . . . . . . . . . .	32 Bit	 000017CF Para	  Public  'CODE'	


Procedures, parameters, and locals:

                N a m e                 Type     Value    Attr

CameraMovement . . . . . . . . .	P Near	 000010B8 _TEXT	Length= 000001B8 Public STDCALL
  moveVec  . . . . . . . . . . .		 bp - 0000000C
ClampProc  . . . . . . . . . . .	P Near	 00000455 _TEXT	Length= 00000040 Public STDCALL
  val  . . . . . . . . . . . . .	DWord	 bp + 00000008
  min  . . . . . . . . . . . . .	DWord	 bp + 0000000C
  max  . . . . . . . . . . . . .	DWord	 bp + 00000010
CloseFile  . . . . . . . . . . .	P Near	 00000000 FLAT	Length= 00000000 External STDCALL
CloseHandle  . . . . . . . . . .	P Near	 00000000 FLAT	Length= 00000000 External STDCALL
Clrscr . . . . . . . . . . . . .	P Near	 00000000 FLAT	Length= 00000000 External STDCALL
CreateFileA  . . . . . . . . . .	P Near	 00000000 FLAT	Length= 00000000 External STDCALL
CreateOutputFile . . . . . . . .	P Near	 00000000 FLAT	Length= 00000000 External STDCALL
Crlf . . . . . . . . . . . . . .	P Near	 00000000 FLAT	Length= 00000000 External STDCALL
Delay  . . . . . . . . . . . . .	P Near	 00000000 FLAT	Length= 00000000 External STDCALL
DigitsNumber . . . . . . . . . .	P Near	 00000000 _TEXT	Length= 0000003B Public STDCALL
  val  . . . . . . . . . . . . .	DWord	 bp + 00000008
  DigitsNumberLOOP . . . . . . .	L Near	 0000001F _TEXT	
DiveProc . . . . . . . . . . . .	P Near	 000004D4 _TEXT	Length= 0000004F Public STDCALL
  val1 . . . . . . . . . . . . .	DWord	 bp + 00000008
  val2 . . . . . . . . . . . . .	DWord	 bp + 0000000C
  DiveProcNotNeg . . . . . . . .	L Near	 0000051C _TEXT	
  DiveProcEnd  . . . . . . . . .	L Near	 0000051E _TEXT	
DrawLineProc . . . . . . . . . .	P Near	 00000DDB _TEXT	Length= 0000013F Public STDCALL
  fromPtr  . . . . . . . . . . .	DWord	 bp + 00000008
  toPtr  . . . . . . . . . . . .	DWord	 bp + 0000000C
  color  . . . . . . . . . . . .	Word	 bp + 00000010
  from . . . . . . . . . . . . .		 bp - 0000000C
  to . . . . . . . . . . . . . .		 bp - 00000018
  posOffset  . . . . . . . . . .		 bp - 00000024
  iLoop  . . . . . . . . . . . .	DWord	 bp - 00000028
  len  . . . . . . . . . . . . .	DWord	 bp - 0000002C
  DrawLineProcLoopI  . . . . . .	L Near	 00000E5F _TEXT	
  DrawLineProcEnd  . . . . . . .	L Near	 00000F10 _TEXT	
DrawSphereProc . . . . . . . . .	P Near	 00000F1A _TEXT	Length= 0000019E Public STDCALL
  infoPtr  . . . . . . . . . . .	DWord	 bp + 00000008
  color  . . . . . . . . . . . .	Word	 bp + 0000000C
  maxX . . . . . . . . . . . . .	DWord	 bp - 00000004
  maxY . . . . . . . . . . . . .	DWord	 bp - 00000008
  minX . . . . . . . . . . . . .	DWord	 bp - 0000000C
  minY . . . . . . . . . . . . .	DWord	 bp - 00000010
  originPos  . . . . . . . . . .		 bp - 0000001C
  targetPos  . . . . . . . . . .		 bp - 00000028
  iLoop  . . . . . . . . . . . .	DWord	 bp - 0000002C
  jLoop  . . . . . . . . . . . .	DWord	 bp - 00000030
  limit  . . . . . . . . . . . .	DWord	 bp - 00000034
  DrawSphereProcLoopI  . . . . .	L Near	 00001035 _TEXT	
  DrawSphereProcLoopJ  . . . . .	L Near	 0000103B _TEXT	
  DrawSphereProcDontDraw . . . .	L Near	 00001081 _TEXT	
  DrawSphereProcEnd  . . . . . .	L Near	 000010AF _TEXT	
DumpMem  . . . . . . . . . . . .	P Near	 00000000 FLAT	Length= 00000000 External STDCALL
DumpRegs . . . . . . . . . . . .	P Near	 00000000 FLAT	Length= 00000000 External STDCALL
EulerToRotMatrixProc . . . . . .	P Near	 00000A59 _TEXT	Length= 00000116 Public STDCALL
  matrix . . . . . . . . . . . .	DWord	 bp + 00000008
  euler  . . . . . . . . . . . .	DWord	 bp + 0000000C
  xm . . . . . . . . . . . . . .		 bp - 00000024
  ym . . . . . . . . . . . . . .		 bp - 00000048
  zm . . . . . . . . . . . . . .		 bp - 0000006C
  zxm  . . . . . . . . . . . . .		 bp - 00000090
ExitProcess  . . . . . . . . . .	P Near	 00000000 FLAT	Length= 00000000 External STDCALL
FileTimeToDosDateTime  . . . . .	P Near	 00000000 FLAT	Length= 00000000 External STDCALL
FileTimeToSystemTime . . . . . .	P Near	 00000000 FLAT	Length= 00000000 External STDCALL
FlushConsoleInputBuffer  . . . .	P Near	 00000000 FLAT	Length= 00000000 External STDCALL
FormatMessageA . . . . . . . . .	P Near	 00000000 FLAT	Length= 00000000 External STDCALL
GetCommandLineA  . . . . . . . .	P Near	 00000000 FLAT	Length= 00000000 External STDCALL
GetCommandTail . . . . . . . . .	P Near	 00000000 FLAT	Length= 00000000 External STDCALL
GetConsoleCP . . . . . . . . . .	P Near	 00000000 FLAT	Length= 00000000 External STDCALL
GetConsoleCursorInfo . . . . . .	P Near	 00000000 FLAT	Length= 00000000 External STDCALL
GetConsoleMode . . . . . . . . .	P Near	 00000000 FLAT	Length= 00000000 External STDCALL
GetConsoleScreenBufferInfo . . .	P Near	 00000000 FLAT	Length= 00000000 External STDCALL
GetDateTime  . . . . . . . . . .	P Near	 00000000 FLAT	Length= 00000000 External STDCALL
GetFileTime  . . . . . . . . . .	P Near	 00000000 FLAT	Length= 00000000 External STDCALL
GetKeyState  . . . . . . . . . .	P Near	 00000000 FLAT	Length= 00000000 External STDCALL
GetLastError . . . . . . . . . .	P Near	 00000000 FLAT	Length= 00000000 External STDCALL
GetLocalTime . . . . . . . . . .	P Near	 00000000 FLAT	Length= 00000000 External STDCALL
GetMaxXY . . . . . . . . . . . .	P Near	 00000000 FLAT	Length= 00000000 External STDCALL
GetMseconds  . . . . . . . . . .	P Near	 00000000 FLAT	Length= 00000000 External STDCALL
GetNumberOfConsoleInputEvents  .	P Near	 00000000 FLAT	Length= 00000000 External STDCALL
GetProcessHeap . . . . . . . . .	P Near	 00000000 FLAT	Length= 00000000 External STDCALL
GetStdHandle . . . . . . . . . .	P Near	 00000000 FLAT	Length= 00000000 External STDCALL
GetSystemTime  . . . . . . . . .	P Near	 00000000 FLAT	Length= 00000000 External STDCALL
GetTextColor . . . . . . . . . .	P Near	 00000000 FLAT	Length= 00000000 External STDCALL
GetTickCount . . . . . . . . . .	P Near	 00000000 FLAT	Length= 00000000 External STDCALL
Gotoxy . . . . . . . . . . . . .	P Near	 00000000 FLAT	Length= 00000000 External STDCALL
HeapAlloc  . . . . . . . . . . .	P Near	 00000000 FLAT	Length= 00000000 External STDCALL
HeapCreate . . . . . . . . . . .	P Near	 00000000 FLAT	Length= 00000000 External STDCALL
HeapDestroy  . . . . . . . . . .	P Near	 00000000 FLAT	Length= 00000000 External STDCALL
HeapFree . . . . . . . . . . . .	P Near	 00000000 FLAT	Length= 00000000 External STDCALL
HeapSize . . . . . . . . . . . .	P Near	 00000000 FLAT	Length= 00000000 External STDCALL
IsDigit  . . . . . . . . . . . .	P Near	 00000000 FLAT	Length= 00000000 External STDCALL
LocalFree  . . . . . . . . . . .	P Near	 00000000 FLAT	Length= 00000000 External STDCALL
Matrix3DiveKProc . . . . . . . .	P Near	 00000A33 _TEXT	Length= 00000026 Public STDCALL
  mat  . . . . . . . . . . . . .	DWord	 bp + 00000008
  K  . . . . . . . . . . . . . .	DWord	 bp + 0000000C
  Matrix3DiveKLoop . . . . . . .	L Near	 00000A41 _TEXT	
Matrix3MultKProc . . . . . . . .	P Near	 00000A0D _TEXT	Length= 00000026 Public STDCALL
  mat  . . . . . . . . . . . . .	DWord	 bp + 00000008
  K  . . . . . . . . . . . . . .	DWord	 bp + 0000000C
  Matrix3MultKLoop . . . . . . .	L Near	 00000A1B _TEXT	
Matrix3Mult  . . . . . . . . . .	P Near	 00000837 _TEXT	Length= 000001D6 Public STDCALL
  result . . . . . . . . . . . .	DWord	 bp + 00000008
  m1 . . . . . . . . . . . . . .	DWord	 bp + 0000000C
  m2 . . . . . . . . . . . . . .	DWord	 bp + 00000010
Max2Proc . . . . . . . . . . . .	P Near	 000003FD _TEXT	Length= 00000012 Public STDCALL
  val1 . . . . . . . . . . . . .	DWord	 bp + 00000008
  val2 . . . . . . . . . . . . .	DWord	 bp + 0000000C
  Max2ProcCheck  . . . . . . . .	L Near	 0000040B _TEXT	
Max3Proc . . . . . . . . . . . .	P Near	 0000040F _TEXT	Length= 0000001A Public STDCALL
  val1 . . . . . . . . . . . . .	DWord	 bp + 00000008
  val2 . . . . . . . . . . . . .	DWord	 bp + 0000000C
  val3 . . . . . . . . . . . . .	DWord	 bp + 00000010
  Max3ProcCheck1 . . . . . . . .	L Near	 0000041D _TEXT	
  Max3ProcCheck2 . . . . . . . .	L Near	 00000425 _TEXT	
MessageBoxA  . . . . . . . . . .	P Near	 00000000 FLAT	Length= 00000000 External STDCALL
Min2Proc . . . . . . . . . . . .	P Near	 00000429 _TEXT	Length= 00000012 Public STDCALL
  val1 . . . . . . . . . . . . .	DWord	 bp + 00000008
  val2 . . . . . . . . . . . . .	DWord	 bp + 0000000C
  Min2ProcCheck  . . . . . . . .	L Near	 00000437 _TEXT	
Min3Proc . . . . . . . . . . . .	P Near	 0000043B _TEXT	Length= 0000001A Public STDCALL
  val1 . . . . . . . . . . . . .	DWord	 bp + 00000008
  val2 . . . . . . . . . . . . .	DWord	 bp + 0000000C
  val3 . . . . . . . . . . . . .	DWord	 bp + 00000010
  Min3ProcCheck1 . . . . . . . .	L Near	 00000449 _TEXT	
  Min3ProcCheck2 . . . . . . . .	L Near	 00000451 _TEXT	
MsgBoxAsk  . . . . . . . . . . .	P Near	 00000000 FLAT	Length= 00000000 External STDCALL
MsgBox . . . . . . . . . . . . .	P Near	 00000000 FLAT	Length= 00000000 External STDCALL
MultProc . . . . . . . . . . . .	P Near	 00000495 _TEXT	Length= 0000003F Public STDCALL
  val1 . . . . . . . . . . . . .	DWord	 bp + 00000008
  val2 . . . . . . . . . . . . .	DWord	 bp + 0000000C
  MultProcOverflow . . . . . . .	L Near	 000004B1 _TEXT	
  MultProcNegOverflow  . . . . .	L Near	 000004C9 _TEXT	
  MultProcNotOverflow  . . . . .	L Near	 000004CE _TEXT	
OpenInputFile  . . . . . . . . .	P Near	 00000000 FLAT	Length= 00000000 External STDCALL
ParseDecimal32 . . . . . . . . .	P Near	 00000000 FLAT	Length= 00000000 External STDCALL
ParseInteger32 . . . . . . . . .	P Near	 00000000 FLAT	Length= 00000000 External STDCALL
PeekConsoleInputA  . . . . . . .	P Near	 00000000 FLAT	Length= 00000000 External STDCALL
Random32 . . . . . . . . . . . .	P Near	 00000000 FLAT	Length= 00000000 External STDCALL
RandomRange  . . . . . . . . . .	P Near	 00000000 FLAT	Length= 00000000 External STDCALL
Randomize  . . . . . . . . . . .	P Near	 00000000 FLAT	Length= 00000000 External STDCALL
RePaint  . . . . . . . . . . . .	P Near	 00000D60 _TEXT	Length= 0000004D Public STDCALL
  writeCount . . . . . . . . . .	Word	 bp - 00000002
  pos  . . . . . . . . . . . . .	DWord	 bp - 00000008
  RePaintLoop  . . . . . . . . .	L Near	 00000D83 _TEXT	
ReadChar . . . . . . . . . . . .	P Near	 00000000 FLAT	Length= 00000000 External STDCALL
ReadConsoleA . . . . . . . . . .	P Near	 00000000 FLAT	Length= 00000000 External STDCALL
ReadConsoleInputA  . . . . . . .	P Near	 00000000 FLAT	Length= 00000000 External STDCALL
ReadDec  . . . . . . . . . . . .	P Near	 00000000 FLAT	Length= 00000000 External STDCALL
ReadFile . . . . . . . . . . . .	P Near	 00000000 FLAT	Length= 00000000 External STDCALL
ReadFloat  . . . . . . . . . . .	P Near	 00000000 FLAT	Length= 00000000 External STDCALL
ReadFromFile . . . . . . . . . .	P Near	 00000000 FLAT	Length= 00000000 External STDCALL
ReadHex  . . . . . . . . . . . .	P Near	 00000000 FLAT	Length= 00000000 External STDCALL
ReadInt  . . . . . . . . . . . .	P Near	 00000000 FLAT	Length= 00000000 External STDCALL
ReadKeyFlush . . . . . . . . . .	P Near	 00000000 FLAT	Length= 00000000 External STDCALL
ReadKey  . . . . . . . . . . . .	P Near	 00000000 FLAT	Length= 00000000 External STDCALL
ReadString . . . . . . . . . . .	P Near	 00000000 FLAT	Length= 00000000 External STDCALL
RotVectorProc  . . . . . . . . .	P Near	 00000B6F _TEXT	Length= 000000C4 Public STDCALL
  vec  . . . . . . . . . . . . .	DWord	 bp + 00000008
  rotMat . . . . . . . . . . . .	DWord	 bp + 0000000C
  result . . . . . . . . . . . .		 bp - 0000000C
SetConsoleCursorInfo . . . . . .	P Near	 00000000 FLAT	Length= 00000000 External STDCALL
SetConsoleCursorPosition . . . .	P Near	 00000000 FLAT	Length= 00000000 External STDCALL
SetConsoleMode . . . . . . . . .	P Near	 00000000 FLAT	Length= 00000000 External STDCALL
SetConsoleScreenBufferSize . . .	P Near	 00000000 FLAT	Length= 00000000 External STDCALL
SetConsoleTextAttribute  . . . .	P Near	 00000000 FLAT	Length= 00000000 External STDCALL
SetConsoleTitleA . . . . . . . .	P Near	 00000000 FLAT	Length= 00000000 External STDCALL
SetConsoleWindowInfo . . . . . .	P Near	 00000000 FLAT	Length= 00000000 External STDCALL
SetFilePointer . . . . . . . . .	P Near	 00000000 FLAT	Length= 00000000 External STDCALL
SetLocalTime . . . . . . . . . .	P Near	 00000000 FLAT	Length= 00000000 External STDCALL
SetPixelProc . . . . . . . . . .	P Near	 00000D37 _TEXT	Length= 00000029 Public STDCALL
  x  . . . . . . . . . . . . . .	DWord	 bp + 00000008
  y  . . . . . . . . . . . . . .	DWord	 bp + 0000000C
  color  . . . . . . . . . . . .	Word	 bp + 00000010
SetScreen  . . . . . . . . . . .	P Near	 00000D12 _TEXT	Length= 00000025 Public STDCALL
  color  . . . . . . . . . . . .	Word	 bp + 00000008
  SetScreenLoop  . . . . . . . .	L Near	 00000D27 _TEXT	
SetSphereProc  . . . . . . . . .	P Near	 00000589 _TEXT	Length= 00000025 Public STDCALL
  spherePtr  . . . . . . . . . .	DWord	 bp + 00000008
  posX . . . . . . . . . . . . .	DWord	 bp + 0000000C
  posY . . . . . . . . . . . . .	DWord	 bp + 00000010
  posZ . . . . . . . . . . . . .	DWord	 bp + 00000014
  r  . . . . . . . . . . . . . .	DWord	 bp + 00000018
SetTextColor . . . . . . . . . .	P Near	 00000000 FLAT	Length= 00000000 External STDCALL
ShowColor  . . . . . . . . . . .	P Near	 00000DAD _TEXT	Length= 0000002E Public STDCALL
  ShowColorLoop  . . . . . . . .	L Near	 00000DBB _TEXT	
ShowFPUStack . . . . . . . . . .	P Near	 00000000 FLAT	Length= 00000000 External STDCALL
Sleep  . . . . . . . . . . . . .	P Near	 00000000 FLAT	Length= 00000000 External STDCALL
SqrtProc . . . . . . . . . . . .	P Near	 00000523 _TEXT	Length= 00000066 Public STDCALL
  val  . . . . . . . . . . . . .	DWord	 bp + 00000008
  SqrtProcLoop . . . . . . . . .	L Near	 0000053B _TEXT	
  SqrtProcEndLoop  . . . . . . .	L Near	 0000056A _TEXT	
  SqrtProcEnd  . . . . . . . . .	L Near	 00000582 _TEXT	
StrLength  . . . . . . . . . . .	P Near	 00000000 FLAT	Length= 00000000 External STDCALL
Str_compare  . . . . . . . . . .	P Near	 00000000 FLAT	Length= 00000000 External STDCALL
Str_copy . . . . . . . . . . . .	P Near	 00000000 FLAT	Length= 00000000 External STDCALL
Str_length . . . . . . . . . . .	P Near	 00000000 FLAT	Length= 00000000 External STDCALL
Str_trim . . . . . . . . . . . .	P Near	 00000000 FLAT	Length= 00000000 External STDCALL
Str_ucase  . . . . . . . . . . .	P Near	 00000000 FLAT	Length= 00000000 External STDCALL
SystemTimeToFileTime . . . . . .	P Near	 00000000 FLAT	Length= 00000000 External STDCALL
VectorLenProc  . . . . . . . . .	P Near	 00000800 _TEXT	Length= 00000037 Public STDCALL
  vec  . . . . . . . . . . . . .	DWord	 bp + 00000008
WaitMsg  . . . . . . . . . . . .	P Near	 00000000 FLAT	Length= 00000000 External STDCALL
World2CameraProc . . . . . . . .	P Near	 00000C33 _TEXT	Length= 000000DF Public STDCALL
  pos  . . . . . . . . . . . . .	DWord	 bp + 00000008
  cor  . . . . . . . . . . . . .	DWord	 bp + 0000000C
  position . . . . . . . . . . .		 bp - 0000000C
  posOffset  . . . . . . . . . .		 bp - 00000018
  tempVec  . . . . . . . . . . .		 bp - 00000024
  vLen . . . . . . . . . . . . .	DWord	 bp - 00000028
  World2CameraProcEnd  . . . . .	L Near	 00000D0B _TEXT	
WriteBinB  . . . . . . . . . . .	P Near	 00000000 FLAT	Length= 00000000 External STDCALL
WriteBin . . . . . . . . . . . .	P Near	 00000000 FLAT	Length= 00000000 External STDCALL
WriteChar  . . . . . . . . . . .	P Near	 00000000 FLAT	Length= 00000000 External STDCALL
WriteConsoleA  . . . . . . . . .	P Near	 00000000 FLAT	Length= 00000000 External STDCALL
WriteConsoleOutputAttribute  . .	P Near	 00000000 FLAT	Length= 00000000 External STDCALL
WriteConsoleOutputCharacterA . .	P Near	 00000000 FLAT	Length= 00000000 External STDCALL
WriteDec . . . . . . . . . . . .	P Near	 00000000 FLAT	Length= 00000000 External STDCALL
WriteFile  . . . . . . . . . . .	P Near	 00000000 FLAT	Length= 00000000 External STDCALL
WriteFloat . . . . . . . . . . .	P Near	 00000000 FLAT	Length= 00000000 External STDCALL
WriteHexB  . . . . . . . . . . .	P Near	 00000000 FLAT	Length= 00000000 External STDCALL
WriteHex . . . . . . . . . . . .	P Near	 00000000 FLAT	Length= 00000000 External STDCALL
WriteInt . . . . . . . . . . . .	P Near	 00000000 FLAT	Length= 00000000 External STDCALL
WriteStackFrameName  . . . . . .	P Near	 00000000 FLAT	Length= 00000000 External STDCALL
WriteStackFrame  . . . . . . . .	P Near	 00000000 FLAT	Length= 00000000 External STDCALL
WriteString  . . . . . . . . . .	P Near	 00000000 FLAT	Length= 00000000 External STDCALL
WriteToFile  . . . . . . . . . .	P Near	 00000000 FLAT	Length= 00000000 External STDCALL
WriteWindowsMsg  . . . . . . . .	P Near	 00000000 FLAT	Length= 00000000 External STDCALL
addVectorProc  . . . . . . . . .	P Near	 0000072B _TEXT	Length= 00000023 Public STDCALL
  v1 . . . . . . . . . . . . . .	DWord	 bp + 00000008
  v2 . . . . . . . . . . . . . .	DWord	 bp + 0000000C
and2Proc . . . . . . . . . . . .	P Near	 000002B8 _TEXT	Length= 00000025 Public STDCALL
  val1 . . . . . . . . . . . . .	Byte	 bp + 00000008
  val2 . . . . . . . . . . . . .	Byte	 bp + 0000000C
and3Proc . . . . . . . . . . . .	P Near	 000002DD _TEXT	Length= 0000002B Public STDCALL
  val1 . . . . . . . . . . . . .	Byte	 bp + 00000008
  val2 . . . . . . . . . . . . .	Byte	 bp + 0000000C
  val3 . . . . . . . . . . . . .	Byte	 bp + 00000010
copyVectorProc . . . . . . . . .	P Near	 000007DD _TEXT	Length= 00000023 Public STDCALL
  v1 . . . . . . . . . . . . . .	DWord	 bp + 00000008
  v2 . . . . . . . . . . . . . .	DWord	 bp + 0000000C
cosProc  . . . . . . . . . . . .	P Near	 00000716 _TEXT	Length= 00000015 Public STDCALL
  deg  . . . . . . . . . . . . .	DWord	 bp + 00000008
degNorProc . . . . . . . . . . .	P Near	 000005AE _TEXT	Length= 0000003D Public STDCALL
  deg  . . . . . . . . . . . . .	DWord	 bp + 00000008
  degNorCheckA . . . . . . . . .	L Near	 000005B4 _TEXT	
  degNorCheckB . . . . . . . . .	L Near	 000005CF _TEXT	
  degNorEnd  . . . . . . . . . .	L Near	 000005E7 _TEXT	
divVectorProc  . . . . . . . . .	P Near	 00000784 _TEXT	Length= 00000036 Public STDCALL
  v1 . . . . . . . . . . . . . .	DWord	 bp + 00000008
  k  . . . . . . . . . . . . . .	DWord	 bp + 0000000C
init . . . . . . . . . . . . . .	P Near	 00001270 _TEXT	Length= 0000001F Public STDCALL
isAEProc . . . . . . . . . . . .	P Near	 0000039A _TEXT	Length= 00000021 Public STDCALL
  val1 . . . . . . . . . . . . .	DWord	 bp + 00000008
  val2 . . . . . . . . . . . . .	DWord	 bp + 0000000C
  isAEfalsePart  . . . . . . . .	L Near	 000003AF _TEXT	
  isAEendProc  . . . . . . . . .	L Near	 000003B6 _TEXT	
isAProc  . . . . . . . . . . . .	P Near	 00000379 _TEXT	Length= 00000021 Public STDCALL
  val1 . . . . . . . . . . . . .	DWord	 bp + 00000008
  val2 . . . . . . . . . . . . .	DWord	 bp + 0000000C
  isAfalsePart . . . . . . . . .	L Near	 0000038E _TEXT	
  isAendProc . . . . . . . . . .	L Near	 00000395 _TEXT	
isBEProc . . . . . . . . . . . .	P Near	 000003DC _TEXT	Length= 00000021 Public STDCALL
  val1 . . . . . . . . . . . . .	DWord	 bp + 00000008
  val2 . . . . . . . . . . . . .	DWord	 bp + 0000000C
  isBEfalsePart  . . . . . . . .	L Near	 000003F1 _TEXT	
  isBEendProc  . . . . . . . . .	L Near	 000003F8 _TEXT	
isBProc  . . . . . . . . . . . .	P Near	 000003BB _TEXT	Length= 00000021 Public STDCALL
  val1 . . . . . . . . . . . . .	DWord	 bp + 00000008
  val2 . . . . . . . . . . . . .	DWord	 bp + 0000000C
  isBfalsePart . . . . . . . . .	L Near	 000003D0 _TEXT	
  isBendProc . . . . . . . . . .	L Near	 000003D7 _TEXT	
isEProc  . . . . . . . . . . . .	P Near	 00000358 _TEXT	Length= 00000021 Public STDCALL
  val1 . . . . . . . . . . . . .	DWord	 bp + 00000008
  val2 . . . . . . . . . . . . .	DWord	 bp + 0000000C
  isEfalsePart . . . . . . . . .	L Near	 0000036D _TEXT	
  isEendProc . . . . . . . . . .	L Near	 00000374 _TEXT	
logSystem  . . . . . . . . . . .	P Near	 000012FB _TEXT	Length= 00000224 Public STDCALL
logm3Proc  . . . . . . . . . . .	P Near	 0000003B _TEXT	Length= 0000027D Public STDCALL
  matrix . . . . . . . . . . . .	DWord	 bp + 00000008
  fix  . . . . . . . . . . . . .		 bp - 0000000C
  ??0001 . . . . . . . . . . . .	L Near	 000000F2 _TEXT	
  ??0000 . . . . . . . . . . . .	L Near	 000000F9 _TEXT	
  ??0003 . . . . . . . . . . . .	L Near	 00000120 _TEXT	
  ??0002 . . . . . . . . . . . .	L Near	 00000127 _TEXT	
  ??0005 . . . . . . . . . . . .	L Near	 0000014E _TEXT	
  ??0004 . . . . . . . . . . . .	L Near	 00000155 _TEXT	
  ??0007 . . . . . . . . . . . .	L Near	 00000197 _TEXT	
  ??0006 . . . . . . . . . . . .	L Near	 0000019E _TEXT	
  ??0009 . . . . . . . . . . . .	L Near	 000001C5 _TEXT	
  ??0008 . . . . . . . . . . . .	L Near	 000001CC _TEXT	
  ??000B . . . . . . . . . . . .	L Near	 000001F3 _TEXT	
  ??000A . . . . . . . . . . . .	L Near	 000001FA _TEXT	
  ??000D . . . . . . . . . . . .	L Near	 0000023C _TEXT	
  ??000C . . . . . . . . . . . .	L Near	 00000243 _TEXT	
  ??000F . . . . . . . . . . . .	L Near	 0000026A _TEXT	
  ??000E . . . . . . . . . . . .	L Near	 00000271 _TEXT	
  ??0011 . . . . . . . . . . . .	L Near	 00000298 _TEXT	
  ??0010 . . . . . . . . . . . .	L Near	 0000029F _TEXT	
mulVectorProc  . . . . . . . . .	P Near	 0000074E _TEXT	Length= 00000036 Public STDCALL
  v1 . . . . . . . . . . . . . .	DWord	 bp + 00000008
  k  . . . . . . . . . . . . . .	DWord	 bp + 0000000C
or2Proc  . . . . . . . . . . . .	P Near	 00000308 _TEXT	Length= 00000025 Public STDCALL
  val1 . . . . . . . . . . . . .	Byte	 bp + 00000008
  val2 . . . . . . . . . . . . .	Byte	 bp + 0000000C
or3Proc  . . . . . . . . . . . .	P Near	 0000032D _TEXT	Length= 0000002B Public STDCALL
  val1 . . . . . . . . . . . . .	Byte	 bp + 00000008
  val2 . . . . . . . . . . . . .	Byte	 bp + 0000000C
  val3 . . . . . . . . . . . . .	Byte	 bp + 00000010
printf . . . . . . . . . . . . .	P Near	 00000000 FLAT	Length= 00000000 External C
scanf  . . . . . . . . . . . . .	P Near	 00000000 FLAT	Length= 00000000 External C
sinProc45  . . . . . . . . . . .	P Near	 000006AE _TEXT	Length= 00000068 Public STDCALL
sinProc  . . . . . . . . . . . .	P Near	 000005EB _TEXT	Length= 000000C3 Public STDCALL
  deg  . . . . . . . . . . . . .	DWord	 bp + 00000008
start@0  . . . . . . . . . . . .	P Near	 0000151F _TEXT	Length= 000002B0 Public STDCALL
  appLoop  . . . . . . . . . . .	L Near	 0000152A _TEXT	
  testLoopA  . . . . . . . . . .	L Near	 000015AF _TEXT	
  testLoopB  . . . . . . . . . .	L Near	 000015B4 _TEXT	
  groundEnd  . . . . . . . . . .	L Near	 000015D7 _TEXT	
subVectorProc  . . . . . . . . .	P Near	 000007BA _TEXT	Length= 00000023 Public STDCALL
  v1 . . . . . . . . . . . . . .	DWord	 bp + 00000008
  v2 . . . . . . . . . . . . . .	DWord	 bp + 0000000C
updateSystemValue  . . . . . . .	P Near	 0000128F _TEXT	Length= 0000006C Public STDCALL
  Euler  . . . . . . . . . . . .		 bp - 0000000C
wsprintfA  . . . . . . . . . . .	P Near	 00000000 FLAT	Length= 00000000 External C


Symbols:

                N a m e                 Type     Value    Attr

@CodeSize  . . . . . . . . . . .	Number	 00000000h   
@DataSize  . . . . . . . . . . .	Number	 00000000h   
@Interface . . . . . . . . . . .	Number	 00000003h   
@Model . . . . . . . . . . . . .	Number	 00000007h   
@code  . . . . . . . . . . . . .	Text   	 _TEXT
@data  . . . . . . . . . . . . .	Text   	 FLAT
@fardata?  . . . . . . . . . . .	Text   	 FLAT
@fardata . . . . . . . . . . . .	Text   	 FLAT
@stack . . . . . . . . . . . . .	Text   	 FLAT
ALT_MASK . . . . . . . . . . . .	Number	 00000003h   
BF . . . . . . . . . . . . . . .	Byte	 0000FAF6 _DATA	
CAPSLOCK_ON  . . . . . . . . . .	Number	 00000080h   
CONST_E  . . . . . . . . . . . .	Number	 00000A96h   
CREATE_ALWAYS  . . . . . . . . .	Number	 00000002h   
CREATE_NEW . . . . . . . . . . .	Number	 00000001h   
CTRL_MASK  . . . . . . . . . . .	Number	 0000000Ch   
CreateFile . . . . . . . . . . .	Text   	 CreateFileA
DO_NOT_SHARE . . . . . . . . . .	Number	 00000000h   
Deg2Rag  . . . . . . . . . . . .	Number	 00000011h   
ENABLE_ECHO_INPUT  . . . . . . .	Number	 00000004h   
ENABLE_LINE_INPUT  . . . . . . .	Number	 00000002h   
ENABLE_MOUSE_INPUT . . . . . . .	Number	 00000010h   
ENABLE_PROCESSED_INPUT . . . . .	Number	 00000001h   
ENABLE_PROCESSED_OUTPUT  . . . .	Number	 00000001h   
ENABLE_WINDOW_INPUT  . . . . . .	Number	 00000008h   
ENABLE_WRAP_AT_EOL_OUTPUT  . . .	Number	 00000002h   
ENHANCED_KEY . . . . . . . . . .	Number	 00000100h   
FALSE  . . . . . . . . . . . . .	Number	 00000000h   
FILE_APPEND_DATA . . . . . . . .	Number	 00000004h   
FILE_ATTRIBUTE_ARCHIVE . . . . .	Number	 00000020h   
FILE_ATTRIBUTE_COMPRESSED  . . .	Number	 00000800h   
FILE_ATTRIBUTE_DEVICE  . . . . .	Number	 00000040h   
FILE_ATTRIBUTE_DIRECTORY . . . .	Number	 00000010h   
FILE_ATTRIBUTE_ENCRYPTED . . . .	Number	 00004000h   
FILE_ATTRIBUTE_HIDDEN  . . . . .	Number	 00000002h   
FILE_ATTRIBUTE_NORMAL  . . . . .	Number	 00000080h   
FILE_ATTRIBUTE_NOT_CONTENT_INDEXED .	Number	 00002000h   
FILE_ATTRIBUTE_OFFLINE . . . . .	Number	 00001000h   
FILE_ATTRIBUTE_READONLY  . . . .	Number	 00000001h   
FILE_ATTRIBUTE_REPARSE_POINT . .	Number	 00000400h   
FILE_ATTRIBUTE_SPARSE_FILE . . .	Number	 00000200h   
FILE_ATTRIBUTE_SYSTEM  . . . . .	Number	 00000004h   
FILE_ATTRIBUTE_TEMPORARY . . . .	Number	 00000100h   
FILE_BEGIN . . . . . . . . . . .	Number	 00000000h   
FILE_CURRENT . . . . . . . . . .	Number	 00000001h   
FILE_DELETE_CHILD  . . . . . . .	Number	 00000040h   
FILE_END . . . . . . . . . . . .	Number	 00000002h   
FILE_READ_DATA . . . . . . . . .	Number	 00000001h   
FILE_SHARE_DELETE  . . . . . . .	Number	 00000004h   
FILE_SHARE_READ  . . . . . . . .	Number	 00000001h   
FILE_SHARE_WRITE . . . . . . . .	Number	 00000002h   
FILE_WRITE_DATA  . . . . . . . .	Number	 00000002h   
FOCUS_EVENT  . . . . . . . . . .	Number	 00000010h   
FORMAT_MESSAGE_ALLOCATE_BUFFER .	Number	 00000100h   
FORMAT_MESSAGE_FROM_SYSTEM . . .	Number	 00001000h   
FormatMessage  . . . . . . . . .	Text   	 FormatMessageA
F  . . . . . . . . . . . . . . .	Number	 00000000h   
GENERIC_ALL  . . . . . . . . . .	Number	 10000000h   
GENERIC_EXECUTE  . . . . . . . .	Number	 20000000h   
GENERIC_READ . . . . . . . . . .	Number	 -80000000h   
GENERIC_WRITE  . . . . . . . . .	Number	 40000000h   
GetCommandLine . . . . . . . . .	Text   	 GetCommandLineA
HANDLE . . . . . . . . . . . . .	Text   	 DWORD
HEAP_GENERATE_EXCEPTIONS . . . .	Number	 00000004h   
HEAP_GROWABLE  . . . . . . . . .	Number	 00000002h   
HEAP_NO_SERIALIZE  . . . . . . .	Number	 00000001h   
HEAP_REALLOC_IN_PLACE_ONLY . . .	Number	 00000010h   
HEAP_ZERO_MEMORY . . . . . . . .	Number	 00000008h   
IDABORT  . . . . . . . . . . . .	Number	 00000003h   
IDCANCEL . . . . . . . . . . . .	Number	 00000002h   
IDCLOSE  . . . . . . . . . . . .	Number	 00000008h   
IDCONTINUE . . . . . . . . . . .	Number	 0000000Bh   
IDHELP . . . . . . . . . . . . .	Number	 00000009h   
IDIGNORE . . . . . . . . . . . .	Number	 00000005h   
IDNO . . . . . . . . . . . . . .	Number	 00000007h   
IDOK . . . . . . . . . . . . . .	Number	 00000001h   
IDRETRY  . . . . . . . . . . . .	Number	 00000004h   
IDTIMEOUT  . . . . . . . . . . .	Number	 00007D00h   
IDTRYAGAIN . . . . . . . . . . .	Number	 0000000Ah   
IDYES  . . . . . . . . . . . . .	Number	 00000006h   
INVALID_HANDLE_VALUE . . . . . .	Number	 -00000001h   
KBDOWN_FLAG  . . . . . . . . . .	Number	 00000001h   
KEY_EVENT  . . . . . . . . . . .	Number	 00000001h   
KEY_MASKS  . . . . . . . . . . .	Number	 0000001Fh   
LEFT_ALT_PRESSED . . . . . . . .	Number	 00000002h   
LEFT_CTRL_PRESSED  . . . . . . .	Number	 00000008h   
MB_ABORTRETRYIGNORE  . . . . . .	Number	 00000002h   
MB_APPLMODAL . . . . . . . . . .	Number	 00000000h   
MB_CANCELTRYCONTINUE . . . . . .	Number	 00000006h   
MB_DEFBUTTON1  . . . . . . . . .	Number	 00000000h   
MB_DEFBUTTON2  . . . . . . . . .	Number	 00000100h   
MB_DEFBUTTON3  . . . . . . . . .	Number	 00000200h   
MB_DEFBUTTON4  . . . . . . . . .	Number	 00000300h   
MB_HELP  . . . . . . . . . . . .	Number	 00004000h   
MB_ICONASTERISK  . . . . . . . .	Number	 00000040h   
MB_ICONERROR . . . . . . . . . .	Number	 00000010h   
MB_ICONEXCLAMATION . . . . . . .	Number	 00000030h   
MB_ICONHAND  . . . . . . . . . .	Number	 00000010h   
MB_ICONINFORMATION . . . . . . .	Number	 00000040h   
MB_ICONQUESTION  . . . . . . . .	Number	 00000020h   
MB_ICONSTOP  . . . . . . . . . .	Number	 00000010h   
MB_ICONWARNING . . . . . . . . .	Number	 00000030h   
MB_OKCANCEL  . . . . . . . . . .	Number	 00000001h   
MB_OK  . . . . . . . . . . . . .	Number	 00000000h   
MB_RETRYCANCEL . . . . . . . . .	Number	 00000005h   
MB_SYSTEMMODAL . . . . . . . . .	Number	 00001000h   
MB_TASKMODAL . . . . . . . . . .	Number	 00002000h   
MB_USERICON  . . . . . . . . . .	Number	 00000080h   
MB_YESNOCANCEL . . . . . . . . .	Number	 00000003h   
MB_YESNO . . . . . . . . . . . .	Number	 00000004h   
MENU_EVENT . . . . . . . . . . .	Number	 00000008h   
MOUSE_EVENT  . . . . . . . . . .	Number	 00000002h   
MessageBox . . . . . . . . . . .	Text   	 MessageBoxA
NULL . . . . . . . . . . . . . .	Number	 00000000h   
NUMLOCK_ON . . . . . . . . . . .	Number	 00000020h   
N_PI . . . . . . . . . . . . . .	Number	 -00000C45h   
OPEN_ALWAYS  . . . . . . . . . .	Number	 00000004h   
OPEN_EXISTING  . . . . . . . . .	Number	 00000003h   
PI . . . . . . . . . . . . . . .	Number	 00000C45h   
PeekConsoleInput . . . . . . . .	Text   	 PeekConsoleInputA
RIGHT_ALT_PRESSED  . . . . . . .	Number	 00000001h   
RIGHT_CTRL_PRESSED . . . . . . .	Number	 00000004h   
Rad2Deg  . . . . . . . . . . . .	Number	 0000DFCFh   
ReadConsoleInput . . . . . . . .	Text   	 ReadConsoleInputA
ReadConsole  . . . . . . . . . .	Text   	 ReadConsoleA
SCROLLLOCK_ON  . . . . . . . . .	Number	 00000040h   
SHIFT_MASK . . . . . . . . . . .	Number	 00000010h   
SHIFT_PRESSED  . . . . . . . . .	Number	 00000010h   
STD_ERROR_HANDLE . . . . . . . .	Number	 -0000000Ch   
STD_INPUT_HANDLE . . . . . . . .	Number	 -0000000Ah   
STD_OUTPUT_HANDLE  . . . . . . .	Number	 -0000000Bh   
SetConsoleTitle  . . . . . . . .	Text   	 SetConsoleTitleA
TAB  . . . . . . . . . . . . . .	Number	 00000009h   
TRUE . . . . . . . . . . . . . .	Number	 00000001h   
TRUNCATE_EXISTING  . . . . . . .	Number	 00000005h   
T  . . . . . . . . . . . . . . .	Number	 00000001h   
VK_11  . . . . . . . . . . . . .	Number	 000000BDh   
VK_12  . . . . . . . . . . . . .	Number	 000000BBh   
VK_ADD . . . . . . . . . . . . .	Number	 0000006Bh   
VK_BACK  . . . . . . . . . . . .	Number	 00000008h   
VK_CANCEL  . . . . . . . . . . .	Number	 00000003h   
VK_CAPITAL . . . . . . . . . . .	Number	 00000014h   
VK_CLEAR . . . . . . . . . . . .	Number	 0000000Ch   
VK_CONTROL . . . . . . . . . . .	Number	 00000011h   
VK_DECIMAL . . . . . . . . . . .	Number	 0000006Eh   
VK_DELETE  . . . . . . . . . . .	Number	 0000002Eh   
VK_DIVIDE  . . . . . . . . . . .	Number	 0000006Fh   
VK_DOWN  . . . . . . . . . . . .	Number	 00000028h   
VK_END . . . . . . . . . . . . .	Number	 00000023h   
VK_ESCAPE  . . . . . . . . . . .	Number	 0000001Bh   
VK_EXECUTE . . . . . . . . . . .	Number	 0000002Bh   
VK_F10 . . . . . . . . . . . . .	Number	 00000079h   
VK_F11 . . . . . . . . . . . . .	Number	 0000007Ah   
VK_F12 . . . . . . . . . . . . .	Number	 0000007Bh   
VK_F13 . . . . . . . . . . . . .	Number	 0000007Ch   
VK_F14 . . . . . . . . . . . . .	Number	 0000007Dh   
VK_F15 . . . . . . . . . . . . .	Number	 0000007Eh   
VK_F16 . . . . . . . . . . . . .	Number	 0000007Fh   
VK_F17 . . . . . . . . . . . . .	Number	 00000080h   
VK_F18 . . . . . . . . . . . . .	Number	 00000081h   
VK_F19 . . . . . . . . . . . . .	Number	 00000082h   
VK_F1  . . . . . . . . . . . . .	Number	 00000070h   
VK_F20 . . . . . . . . . . . . .	Number	 00000083h   
VK_F21 . . . . . . . . . . . . .	Number	 00000084h   
VK_F22 . . . . . . . . . . . . .	Number	 00000085h   
VK_F23 . . . . . . . . . . . . .	Number	 00000086h   
VK_F24 . . . . . . . . . . . . .	Number	 00000087h   
VK_F2  . . . . . . . . . . . . .	Number	 00000071h   
VK_F3  . . . . . . . . . . . . .	Number	 00000072h   
VK_F4  . . . . . . . . . . . . .	Number	 00000073h   
VK_F5  . . . . . . . . . . . . .	Number	 00000074h   
VK_F6  . . . . . . . . . . . . .	Number	 00000075h   
VK_F7  . . . . . . . . . . . . .	Number	 00000076h   
VK_F8  . . . . . . . . . . . . .	Number	 00000077h   
VK_F9  . . . . . . . . . . . . .	Number	 00000078h   
VK_HELP  . . . . . . . . . . . .	Number	 0000002Fh   
VK_HOME  . . . . . . . . . . . .	Number	 00000024h   
VK_INSERT  . . . . . . . . . . .	Number	 0000002Dh   
VK_LBUTTON . . . . . . . . . . .	Number	 00000001h   
VK_LCONTROL  . . . . . . . . . .	Number	 000000A2h   
VK_LEFT  . . . . . . . . . . . .	Number	 00000025h   
VK_LMENU . . . . . . . . . . . .	Number	 000000A4h   
VK_LSHIFT  . . . . . . . . . . .	Number	 000000A0h   
VK_MENU  . . . . . . . . . . . .	Number	 00000012h   
VK_MULTIPLY  . . . . . . . . . .	Number	 0000006Ah   
VK_NEXT  . . . . . . . . . . . .	Number	 00000022h   
VK_NUMLOCK . . . . . . . . . . .	Number	 00000090h   
VK_NUMPAD0 . . . . . . . . . . .	Number	 00000060h   
VK_NUMPAD1 . . . . . . . . . . .	Number	 00000061h   
VK_NUMPAD2 . . . . . . . . . . .	Number	 00000062h   
VK_NUMPAD3 . . . . . . . . . . .	Number	 00000063h   
VK_NUMPAD4 . . . . . . . . . . .	Number	 00000064h   
VK_NUMPAD5 . . . . . . . . . . .	Number	 00000065h   
VK_NUMPAD6 . . . . . . . . . . .	Number	 00000066h   
VK_NUMPAD7 . . . . . . . . . . .	Number	 00000067h   
VK_NUMPAD8 . . . . . . . . . . .	Number	 00000068h   
VK_NUMPAD9 . . . . . . . . . . .	Number	 00000069h   
VK_PAUSE . . . . . . . . . . . .	Number	 00000013h   
VK_PRINT . . . . . . . . . . . .	Number	 0000002Ah   
VK_PRIOR . . . . . . . . . . . .	Number	 00000021h   
VK_RBUTTON . . . . . . . . . . .	Number	 00000002h   
VK_RCONTROL  . . . . . . . . . .	Number	 000000A3h   
VK_RETURN  . . . . . . . . . . .	Number	 0000000Dh   
VK_RIGHT . . . . . . . . . . . .	Number	 00000027h   
VK_RMENU . . . . . . . . . . . .	Number	 000000A5h   
VK_RSHIFT  . . . . . . . . . . .	Number	 000000A1h   
VK_SCROLL  . . . . . . . . . . .	Number	 00000091h   
VK_SEPARATER . . . . . . . . . .	Number	 0000006Ch   
VK_SHIFT . . . . . . . . . . . .	Number	 00000010h   
VK_SNAPSHOT  . . . . . . . . . .	Number	 0000002Ch   
VK_SPACE . . . . . . . . . . . .	Number	 00000020h   
VK_SUBTRACT  . . . . . . . . . .	Number	 0000006Dh   
VK_TAB . . . . . . . . . . . . .	Number	 00000009h   
VK_UP  . . . . . . . . . . . . .	Number	 00000026h   
WINDOW_BUFFER_SIZE_EVENT . . . .	Number	 00000004h   
WriteConsoleOutputCharacter  . .	Text   	 WriteConsoleOutputCharacterA
WriteConsole . . . . . . . . . .	Text   	 WriteConsoleA
black  . . . . . . . . . . . . .	Number	 00000000h   
blue . . . . . . . . . . . . . .	Number	 00000001h   
brown  . . . . . . . . . . . . .	Number	 00000006h   
cameraDepth  . . . . . . . . . .	DWord	 0000FAEC _DATA	
cameraFacing . . . . . . . . . .	Vector	 0000FA2C _DATA	
cameraRotMatX  . . . . . . . . .	Matrix3	 0000FA80 _DATA	
cameraRotMatY  . . . . . . . . .	Matrix3	 0000FAA4 _DATA	
cameraRotMatZ  . . . . . . . . .	Matrix3	 0000FAC8 _DATA	
cameraRotMat . . . . . . . . . .	Matrix3	 0000FA38 _DATA	
camera . . . . . . . . . . . . .	Transform  0000FA14 _DATA	
consoleHandle  . . . . . . . . .	DWord	 00000000 _DATA	
cursorPos  . . . . . . . . . . .	COORD	 00000004 _DATA	
cyan . . . . . . . . . . . . . .	Number	 00000003h   
exit . . . . . . . . . . . . . .	Text   	 INVOKE ExitProcess,0
gray . . . . . . . . . . . . . .	Number	 00000008h   
green  . . . . . . . . . . . . .	Number	 00000002h   
i  . . . . . . . . . . . . . . .	DWord	 0000FAF7 _DATA	
j  . . . . . . . . . . . . . . .	DWord	 0000FAFB _DATA	
keyDownCode  . . . . . . . . . .	Word	 0000FAF4 _DATA	
layoutAttributes . . . . . . . .	Word	 00000014 _DATA	
lightBlue  . . . . . . . . . . .	Number	 00000009h   
lightCyan  . . . . . . . . . . .	Number	 0000000Bh   
lightGray  . . . . . . . . . . .	Number	 00000007h   
lightGreen . . . . . . . . . . .	Number	 0000000Ah   
lightMagenta . . . . . . . . . .	Number	 0000000Dh   
lightRed . . . . . . . . . . . .	Number	 0000000Ch   
magenta  . . . . . . . . . . . .	Number	 00000005h   
main . . . . . . . . . . . . . .	Text   	 start@0
moveSpeed  . . . . . . . . . . .	DWord	 0000FAF0 _DATA	
m  . . . . . . . . . . . . . . .	DWord	 0000FB03 _DATA	
neg_cameraRotMat . . . . . . . .	Matrix3	 0000FA5C _DATA	
n  . . . . . . . . . . . . . . .	DWord	 0000FAFF _DATA	
obj1 . . . . . . . . . . . . . .	SphereData  0000FB07 _DATA	
obj2 . . . . . . . . . . . . . .	SphereData  0000FB17 _DATA	
obj3 . . . . . . . . . . . . . .	SphereData  0000FB27 _DATA	
obj4 . . . . . . . . . . . . . .	SphereData  0000FB37 _DATA	
obj5 . . . . . . . . . . . . . .	SphereData  0000FB47 _DATA	
obj6 . . . . . . . . . . . . . .	SphereData  0000FB57 _DATA	
obj7 . . . . . . . . . . . . . .	SphereData  0000FB67 _DATA	
obj8 . . . . . . . . . . . . . .	SphereData  0000FB77 _DATA	
p1 . . . . . . . . . . . . . . .	Vector	 0000FB87 _DATA	
p2 . . . . . . . . . . . . . . .	Vector	 0000FB93 _DATA	
red  . . . . . . . . . . . . . .	Number	 00000004h   
screenSize . . . . . . . . . . .	COORD	 00000008 _DATA	
sc . . . . . . . . . . . . . . .	Vector	 0000FB9F _DATA	
white  . . . . . . . . . . . . .	Number	 0000000Fh   
windowRect . . . . . . . . . . .	SMALL_RECT  0000000C _DATA	
wsprintf . . . . . . . . . . . .	Text   	 wsprintfA
yellow . . . . . . . . . . . . .	Number	 0000000Eh   

	   2 Warnings
	   0 Errors
